///////////////////////////////////////////////////////////////////////////////
//
// IAR C/C++ Compiler V9.20.1.2476 for 8051               29/Mar/2016  12:49:42
// Copyright 2004-2015 IAR Systems AB.
// Standalone license - IAR Embedded Workbench for 8051
//
//    Core               =  plain
//    Code model         =  banked
//    Data model         =  large
//    Calling convention =  xdata reentrant
//    Constant location  =  data_rom
//    Dptr setup         =  1,16
//                          
//    Source file        =  
//        C:\Users\DLeijen\Documents\WSN-Lab\Z-Stack Mesh
//        1.0.0\Projects\zstack\Samples\DemoApp\Source\DemoCoordinator.c
//    Command line       =  
//        -f "C:\Users\DLeijen\Documents\WSN-Lab\Z-Stack Mesh
//        1.0.0\Projects\zstack\Samples\DemoApp\CC2530DB\..\..\..\Tools\CC2530DB\f8wCoord.cfg"
//        (-DCPU32MHZ -DROOT=__near_func -DMAC_CFG_APP_PENDING_QUEUE=TRUE
//        -DMAC_CFG_TX_DATA_MAX=5 -DMAC_CFG_TX_MAX=8 -DMAC_CFG_RX_MAX=5
//        -DZDO_COORDINATOR -DRTR_NWK) -f
//        "C:\Users\DLeijen\Documents\WSN-Lab\Z-Stack Mesh
//        1.0.0\Projects\zstack\Samples\DemoApp\CC2530DB\..\..\..\Tools\CC2530DB\f8wConfig.cfg"
//        (-DZIGBEEPRO -DSECURE=1 -DZG_SECURE_DYNAMIC=0 -DREFLECTOR
//        -DDEFAULT_CHANLIST=0x02000000 -DZDAPP_CONFIG_PAN_ID=0x1AAD
//        -DNWK_START_DELAY=100 -DEXTENDED_JOINING_RANDOM_MASK=0x007F
//        -DBEACON_REQUEST_DELAY=100 -DBEACON_REQ_DELAY_MASK=0x00FF
//        -DLINK_STATUS_JITTER_MASK=0x007F -DROUTE_EXPIRY_TIME=30
//        -DAPSC_ACK_WAIT_DURATION_POLLED=3000 -DNWK_INDIRECT_MSG_TIMEOUT=7
//        -DMAX_RREQ_ENTRIES=8 -DAPSC_MAX_FRAME_RETRIES=3
//        -DNWK_MAX_DATA_RETRIES=2 -DMAX_POLL_FAILURE_RETRIES=2 -DMAX_BCAST=9
//        -DAPS_MAX_GROUPS=16 -DMAX_RTG_ENTRIES=40 -DNWK_MAX_BINDING_ENTRIES=4
//        -DMAX_BINDING_CLUSTER_IDS=4 "-DDEFAULT_KEY={0x01, 0x03, 0x05, 0x07,
//        0x09, 0x0B, 0x0D, 0x0F, 0x00, 0x02, 0x04, 0x06, 0x08, 0x0A, 0x0C,
//        0x0D}" -DMAC_MAX_FRAME_SIZE=116 -DZDNWKMGR_MIN_TRANSMISSIONS=20
//        "-DCONST=const __code" -DGENERIC=__generic -DRFD_RCVC_ALWAYS_ON=TRUE
//        -DPOLL_RATE=1000 -DQUEUED_POLL_RATE=100 -DRESPONSE_POLL_RATE=100)
//        -DREJOIN_POLL_RATE=440 "C:\Users\DLeijen\Documents\WSN-Lab\Z-Stack
//        Mesh 1.0.0\Projects\zstack\Samples\DemoApp\Source\DemoCoordinator.c"
//        -D HOLD_AUTO_START -D BUILD_ALL_DEVICES -D REFLECTOR -D NV_INIT -D
//        xNV_RESTORE -D ZTOOL_P1 -lC
//        "C:\Users\DLeijen\Documents\WSN-Lab\Z-Stack Mesh
//        1.0.0\Projects\zstack\Samples\DemoApp\CC2530DB\CoordinatorEB\List\"
//        -lA "C:\Users\DLeijen\Documents\WSN-Lab\Z-Stack Mesh
//        1.0.0\Projects\zstack\Samples\DemoApp\CC2530DB\CoordinatorEB\List\"
//        --diag_suppress Pe001,Pa010,Pe1665 -o
//        "C:\Users\DLeijen\Documents\WSN-Lab\Z-Stack Mesh
//        1.0.0\Projects\zstack\Samples\DemoApp\CC2530DB\CoordinatorEB\Obj\" -e
//        --debug --core=plain --dptr=16,1 --data_model=large
//        --code_model=banked --calling_convention=xdata_reentrant
//        --place_constants=data_rom --nr_virtual_regs 16 -I
//        "C:\Users\DLeijen\Documents\WSN-Lab\Z-Stack Mesh
//        1.0.0\Projects\zstack\Samples\DemoApp\CC2530DB\" -I
//        "C:\Users\DLeijen\Documents\WSN-Lab\Z-Stack Mesh
//        1.0.0\Projects\zstack\Samples\DemoApp\CC2530DB\..\Source\" -I
//        "C:\Users\DLeijen\Documents\WSN-Lab\Z-Stack Mesh
//        1.0.0\Projects\zstack\Samples\DemoApp\CC2530DB\..\..\..\ZMain\TI2530DB\"
//        -I "C:\Users\DLeijen\Documents\WSN-Lab\Z-Stack Mesh
//        1.0.0\Projects\zstack\Samples\DemoApp\CC2530DB\..\..\..\..\..\Components\hal\include\"
//        -I "C:\Users\DLeijen\Documents\WSN-Lab\Z-Stack Mesh
//        1.0.0\Projects\zstack\Samples\DemoApp\CC2530DB\..\..\..\..\..\Components\hal\target\CC2530EB\"
//        -I "C:\Users\DLeijen\Documents\WSN-Lab\Z-Stack Mesh
//        1.0.0\Projects\zstack\Samples\DemoApp\CC2530DB\..\..\..\..\..\Components\mac\include\"
//        -I "C:\Users\DLeijen\Documents\WSN-Lab\Z-Stack Mesh
//        1.0.0\Projects\zstack\Samples\DemoApp\CC2530DB\..\..\..\..\..\Components\mac\high_level\"
//        -I "C:\Users\DLeijen\Documents\WSN-Lab\Z-Stack Mesh
//        1.0.0\Projects\zstack\Samples\DemoApp\CC2530DB\..\..\..\..\..\Components\mac\low_level\srf04\"
//        -I "C:\Users\DLeijen\Documents\WSN-Lab\Z-Stack Mesh
//        1.0.0\Projects\zstack\Samples\DemoApp\CC2530DB\..\..\..\..\..\Components\mac\low_level\srf04\single_chip\"
//        -I "C:\Users\DLeijen\Documents\WSN-Lab\Z-Stack Mesh
//        1.0.0\Projects\zstack\Samples\DemoApp\CC2530DB\..\..\..\..\..\Components\mt\"
//        -I "C:\Users\DLeijen\Documents\WSN-Lab\Z-Stack Mesh
//        1.0.0\Projects\zstack\Samples\DemoApp\CC2530DB\..\..\..\..\..\Components\osal\include\"
//        -I "C:\Users\DLeijen\Documents\WSN-Lab\Z-Stack Mesh
//        1.0.0\Projects\zstack\Samples\DemoApp\CC2530DB\..\..\..\..\..\Components\services\saddr\"
//        -I "C:\Users\DLeijen\Documents\WSN-Lab\Z-Stack Mesh
//        1.0.0\Projects\zstack\Samples\DemoApp\CC2530DB\..\..\..\..\..\Components\services\sdata\"
//        -I "C:\Users\DLeijen\Documents\WSN-Lab\Z-Stack Mesh
//        1.0.0\Projects\zstack\Samples\DemoApp\CC2530DB\..\..\..\..\..\Components\stack\af\"
//        -I "C:\Users\DLeijen\Documents\WSN-Lab\Z-Stack Mesh
//        1.0.0\Projects\zstack\Samples\DemoApp\CC2530DB\..\..\..\..\..\Components\stack\nwk\"
//        -I "C:\Users\DLeijen\Documents\WSN-Lab\Z-Stack Mesh
//        1.0.0\Projects\zstack\Samples\DemoApp\CC2530DB\..\..\..\..\..\Components\stack\sapi\"
//        -I "C:\Users\DLeijen\Documents\WSN-Lab\Z-Stack Mesh
//        1.0.0\Projects\zstack\Samples\DemoApp\CC2530DB\..\..\..\..\..\Components\stack\sec\"
//        -I "C:\Users\DLeijen\Documents\WSN-Lab\Z-Stack Mesh
//        1.0.0\Projects\zstack\Samples\DemoApp\CC2530DB\..\..\..\..\..\Components\stack\sys\"
//        -I "C:\Users\DLeijen\Documents\WSN-Lab\Z-Stack Mesh
//        1.0.0\Projects\zstack\Samples\DemoApp\CC2530DB\..\..\..\..\..\Components\stack\zdo\"
//        -I "C:\Users\DLeijen\Documents\WSN-Lab\Z-Stack Mesh
//        1.0.0\Projects\zstack\Samples\DemoApp\CC2530DB\..\..\..\..\..\Components\zmac\"
//        -I "C:\Users\DLeijen\Documents\WSN-Lab\Z-Stack Mesh
//        1.0.0\Projects\zstack\Samples\DemoApp\CC2530DB\..\..\..\..\..\Components\zmac\f8w\"
//        -Oh --require_prototypes
//    List file          =  
//        C:\Users\DLeijen\Documents\WSN-Lab\Z-Stack Mesh
//        1.0.0\Projects\zstack\Samples\DemoApp\CC2530DB\CoordinatorEB\List\DemoCoordinator.s51
//
///////////////////////////////////////////////////////////////////////////////

        NAME DemoCoordinator

        RTMODEL "__SystemLibrary", "CLib"
        RTMODEL "__calling_convention", "xdata_reentrant"
        RTMODEL "__code_model", "banked"
        RTMODEL "__core", "plain"
        RTMODEL "__data_model", "large"
        RTMODEL "__dptr_size", "16"
        RTMODEL "__extended_stack", "disabled"
        RTMODEL "__location_for_constants", "data"
        RTMODEL "__number_of_dptrs", "1"
        RTMODEL "__rt_version", "1"

        RSEG DOVERLAY:DATA:NOROOT(0)
        RSEG IOVERLAY:IDATA:NOROOT(0)
        RSEG ISTACK:IDATA:NOROOT(0)
        RSEG PSTACK:XDATA:NOROOT(0)
        RSEG XSTACK:XDATA:NOROOT(0)

        EXTERN ?V0
        EXTERN ?V1
        EXTERN ?V2
        EXTERN ?V3
        EXTERN ?ALLOC_XSTACK8
        EXTERN ?BANKED_ENTER_XDATA
        EXTERN ?BANKED_LEAVE_XDATA
        EXTERN ?BDISPATCH
        EXTERN ?BRET
        EXTERN ?DEALLOC_XSTACK8
        EXTERN ?PUSH_XSTACK8_X_FOUR
        EXTERN ?PUSH_XSTACK_I_FOUR
        EXTERN ?PUSH_XSTACK_I_ONE
        EXTERN ?PUSH_XSTACK_I_TWO
        EXTERN ?XSP
        EXTERN ?XSTACK_DISP0_8
        EXTERN ?XSTACK_DISP100_8
        EXTERN ?XSTACK_DISP101_8
        EXTERN __INIT_XDATA_I
        EXTERN __INIT_XDATA_Z

        PUBLIC `??sendCommand::?relay`
        FUNCTION `??sendCommand::?relay`,0203H
        PUBLIC `??uartRxCB::?relay`
        FUNCTION `??uartRxCB::?relay`,0203H
        PUBLIC `??zb_AllowBindConfirm::?relay`
        FUNCTION `??zb_AllowBindConfirm::?relay`,0203H
        PUBLIC `??zb_BindConfirm::?relay`
        FUNCTION `??zb_BindConfirm::?relay`,0203H
        PUBLIC `??zb_FindDeviceConfirm::?relay`
        FUNCTION `??zb_FindDeviceConfirm::?relay`,0203H
        PUBLIC `??zb_HandleKeys::?relay`
        FUNCTION `??zb_HandleKeys::?relay`,0203H
        PUBLIC `??zb_HandleOsalEvent::?relay`
        FUNCTION `??zb_HandleOsalEvent::?relay`,0203H
        PUBLIC `??zb_ReceiveDataIndication::?relay`
        FUNCTION `??zb_ReceiveDataIndication::?relay`,0203H
        PUBLIC `??zb_SendDataConfirm::?relay`
        FUNCTION `??zb_SendDataConfirm::?relay`,0203H
        PUBLIC `??zb_StartConfirm::?relay`
        FUNCTION `??zb_StartConfirm::?relay`,0203H
        PUBWEAK P0DIR
        PUBWEAK P0INP
        PUBWEAK P0SEL
        PUBWEAK P2INP
        PUBWEAK _A_P0
        PUBWEAK __Constant_3e8
        PUBLIC sendCommand
        FUNCTION sendCommand,0a1203H
        ARGFRAME XSTACK, 9, STACK
        ARGFRAME IOVERLAY, 0, STATIC
        ARGFRAME DOVERLAY, 0, STATIC
        LOCFRAME ISTACK, 1, STACK
        LOCFRAME XSTACK, 16, STACK
        PUBLIC uartRxCB
        FUNCTION uartRxCB,0a1603H
        ARGFRAME XSTACK, 0, STACK
        LOCFRAME ISTACK, 1, STACK
        LOCFRAME XSTACK, 145, STACK
        PUBLIC zb_AllowBindConfirm
        FUNCTION zb_AllowBindConfirm,0203H
        ARGFRAME XSTACK, 0, STACK
        PUBLIC zb_BindConfirm
        FUNCTION zb_BindConfirm,0203H
        ARGFRAME XSTACK, 0, STACK
        PUBLIC zb_FindDeviceConfirm
        FUNCTION zb_FindDeviceConfirm,0203H
        ARGFRAME XSTACK, 0, STACK
        PUBLIC zb_HandleKeys
        FUNCTION zb_HandleKeys,0203H
        ARGFRAME XSTACK, 0, STACK
        PUBLIC zb_HandleOsalEvent
        FUNCTION zb_HandleOsalEvent,021203H
        ARGFRAME XSTACK, 0, STACK
        LOCFRAME XSTACK, 13, STACK
        PUBLIC zb_InCmdList
        PUBLIC zb_OutCmdList
        PUBLIC zb_ReceiveDataIndication
        FUNCTION zb_ReceiveDataIndication,0203H
        ARGFRAME XSTACK, 4, STACK
        LOCFRAME ISTACK, 2, STACK
        PUBLIC zb_SendDataConfirm
        FUNCTION zb_SendDataConfirm,0203H
        ARGFRAME XSTACK, 0, STACK
        PUBLIC zb_SimpleDesc
        PUBLIC zb_StartConfirm
        FUNCTION zb_StartConfirm,0a1203H
        ARGFRAME XSTACK, 0, STACK
        LOCFRAME XSTACK, 16, STACK
        
          CFI Names cfiNames0
          CFI StackFrame CFA_SP SP IDATA
          CFI StackFrame CFA_PSP16 PSP16 XDATA
          CFI StackFrame CFA_XSP16 XSP16 XDATA
          CFI StaticOverlayFrame CFA_IOVERLAY IOVERLAY
          CFI StaticOverlayFrame CFA_DOVERLAY DOVERLAY
          CFI Resource `PSW.CY`:1, `B.BR0`:1, `B.BR1`:1, `B.BR2`:1, `B.BR3`:1
          CFI Resource `B.BR4`:1, `B.BR5`:1, `B.BR6`:1, `B.BR7`:1, `VB.BR8`:1
          CFI Resource `VB.BR9`:1, `VB.BR10`:1, `VB.BR11`:1, `VB.BR12`:1
          CFI Resource `VB.BR13`:1, `VB.BR14`:1, `VB.BR15`:1, VB:8, B:8, A:8
          CFI Resource PSW:8, DPL0:8, DPH0:8, R0:8, R1:8, R2:8, R3:8, R4:8, R5:8
          CFI Resource R6:8, R7:8, V0:8, V1:8, V2:8, V3:8, V4:8, V5:8, V6:8, V7:8
          CFI Resource V8:8, V9:8, V10:8, V11:8, V12:8, V13:8, V14:8, V15:8, SP:8
          CFI Resource PSPH:8, PSPL:8, PSP16:16, XSPH:8, XSPL:8, XSP16:16
          CFI VirtualResource ?RET:24
          CFI Resource ?BRET_EXT:8
          CFI VirtualResource ?RET_HIGH:8, ?RET_LOW:8
          CFI ResourceParts PSP16 PSPH, PSPL
          CFI ResourceParts XSP16 XSPH, XSPL
          CFI ResourceParts ?RET ?BRET_EXT, ?RET_HIGH, ?RET_LOW
          CFI EndNames cfiNames0
        
          CFI Common cfiCommon0 Using cfiNames0
          CFI CodeAlign 1
          CFI DataAlign -1
          CFI ReturnAddress ?RET CODE
          CFI CFA_DOVERLAY Used
          CFI CFA_IOVERLAY Used
          CFI CFA_SP SP+-3
          CFI CFA_PSP16 PSP16+0
          CFI CFA_XSP16 XSP16+0
          CFI `PSW.CY` SameValue
          CFI `B.BR0` SameValue
          CFI `B.BR1` SameValue
          CFI `B.BR2` SameValue
          CFI `B.BR3` SameValue
          CFI `B.BR4` SameValue
          CFI `B.BR5` SameValue
          CFI `B.BR6` SameValue
          CFI `B.BR7` SameValue
          CFI `VB.BR8` SameValue
          CFI `VB.BR9` SameValue
          CFI `VB.BR10` SameValue
          CFI `VB.BR11` SameValue
          CFI `VB.BR12` SameValue
          CFI `VB.BR13` SameValue
          CFI `VB.BR14` SameValue
          CFI `VB.BR15` SameValue
          CFI VB SameValue
          CFI B Undefined
          CFI A Undefined
          CFI PSW SameValue
          CFI DPL0 SameValue
          CFI DPH0 SameValue
          CFI R0 Undefined
          CFI R1 Undefined
          CFI R2 Undefined
          CFI R3 Undefined
          CFI R4 Undefined
          CFI R5 Undefined
          CFI R6 SameValue
          CFI R7 SameValue
          CFI V0 SameValue
          CFI V1 SameValue
          CFI V2 SameValue
          CFI V3 SameValue
          CFI V4 SameValue
          CFI V5 SameValue
          CFI V6 SameValue
          CFI V7 SameValue
          CFI V8 SameValue
          CFI V9 SameValue
          CFI V10 SameValue
          CFI V11 SameValue
          CFI V12 SameValue
          CFI V13 SameValue
          CFI V14 SameValue
          CFI V15 SameValue
          CFI PSPH Undefined
          CFI PSPL Undefined
          CFI XSPH Undefined
          CFI XSPL Undefined
          CFI ?RET Concat
          CFI ?BRET_EXT Frame(CFA_SP, 3)
          CFI ?RET_HIGH Frame(CFA_SP, 2)
          CFI ?RET_LOW Frame(CFA_SP, 1)
          CFI EndCommon cfiCommon0
        
HalAdcInit          SYMBOL "HalAdcInit"
`??HalAdcInit::?relay` SYMBOL "?relay", HalAdcInit
HalAdcRead          SYMBOL "HalAdcRead"
`??HalAdcRead::?relay` SYMBOL "?relay", HalAdcRead
HalLedBlink         SYMBOL "HalLedBlink"
`??HalLedBlink::?relay` SYMBOL "?relay", HalLedBlink
HalLedSet           SYMBOL "HalLedSet"
`??HalLedSet::?relay` SYMBOL "?relay", HalLedSet
HalUARTRead         SYMBOL "HalUARTRead"
`??HalUARTRead::?relay` SYMBOL "?relay", HalUARTRead
HalUARTWrite        SYMBOL "HalUARTWrite"
`??HalUARTWrite::?relay` SYMBOL "?relay", HalUARTWrite
initUart            SYMBOL "initUart"
`??initUart::?relay` SYMBOL "?relay", initUart
osal_start_timerEx  SYMBOL "osal_start_timerEx"
`??osal_start_timerEx::?relay` SYMBOL "?relay", osal_start_timerEx
zb_AllowBind        SYMBOL "zb_AllowBind"
`??zb_AllowBind::?relay` SYMBOL "?relay", zb_AllowBind
zb_SendDataRequest  SYMBOL "zb_SendDataRequest"
`??zb_SendDataRequest::?relay` SYMBOL "?relay", zb_SendDataRequest
zb_StartRequest     SYMBOL "zb_StartRequest"
`??zb_StartRequest::?relay` SYMBOL "?relay", zb_StartRequest
sendCommand         SYMBOL "sendCommand"
`??sendCommand::?relay` SYMBOL "?relay", sendCommand
uartRxCB            SYMBOL "uartRxCB"
`??uartRxCB::?relay` SYMBOL "?relay", uartRxCB
zb_AllowBindConfirm SYMBOL "zb_AllowBindConfirm"
`??zb_AllowBindConfirm::?relay` SYMBOL "?relay", zb_AllowBindConfirm
zb_BindConfirm      SYMBOL "zb_BindConfirm"
`??zb_BindConfirm::?relay` SYMBOL "?relay", zb_BindConfirm
zb_FindDeviceConfirm SYMBOL "zb_FindDeviceConfirm"
`??zb_FindDeviceConfirm::?relay` SYMBOL "?relay", zb_FindDeviceConfirm
zb_HandleKeys       SYMBOL "zb_HandleKeys"
`??zb_HandleKeys::?relay` SYMBOL "?relay", zb_HandleKeys
zb_HandleOsalEvent  SYMBOL "zb_HandleOsalEvent"
`??zb_HandleOsalEvent::?relay` SYMBOL "?relay", zb_HandleOsalEvent
zb_ReceiveDataIndication SYMBOL "zb_ReceiveDataIndication"
`??zb_ReceiveDataIndication::?relay` SYMBOL "?relay", zb_ReceiveDataIndication
zb_SendDataConfirm  SYMBOL "zb_SendDataConfirm"
`??zb_SendDataConfirm::?relay` SYMBOL "?relay", zb_SendDataConfirm
zb_StartConfirm     SYMBOL "zb_StartConfirm"
`??zb_StartConfirm::?relay` SYMBOL "?relay", zb_StartConfirm

        EXTERN `??HalAdcInit::?relay`
        FUNCTION `??HalAdcInit::?relay`,00H
        EXTERN `??HalAdcRead::?relay`
        FUNCTION `??HalAdcRead::?relay`,00H
        EXTERN `??HalLedBlink::?relay`
        FUNCTION `??HalLedBlink::?relay`,00H
        EXTERN `??HalLedSet::?relay`
        FUNCTION `??HalLedSet::?relay`,00H
        EXTERN `??HalUARTRead::?relay`
        FUNCTION `??HalUARTRead::?relay`,00H
        EXTERN `??HalUARTWrite::?relay`
        FUNCTION `??HalUARTWrite::?relay`,00H
        EXTERN `??initUart::?relay`
        FUNCTION `??initUart::?relay`,00H
        EXTERN `??osal_start_timerEx::?relay`
        FUNCTION `??osal_start_timerEx::?relay`,00H
        EXTERN `??zb_AllowBind::?relay`
        FUNCTION `??zb_AllowBind::?relay`,00H
        EXTERN `??zb_SendDataRequest::?relay`
        FUNCTION `??zb_SendDataRequest::?relay`,00H
        EXTERN `??zb_StartRequest::?relay`
        FUNCTION `??zb_StartRequest::?relay`,00H
        EXTERN HalAdcInit
        FUNCTION HalAdcInit,0202H
        ARGFRAME ISTACK, 0, STACK
        ARGFRAME PSTACK, 0, STACK
        ARGFRAME XSTACK, 9, STACK
        ARGFRAME IOVERLAY, 0, STATIC
        ARGFRAME DOVERLAY, 0, STATIC
        EXTERN HalAdcRead
        FUNCTION HalAdcRead,0202H
        ARGFRAME ISTACK, 0, STACK
        ARGFRAME PSTACK, 0, STACK
        ARGFRAME XSTACK, 9, STACK
        ARGFRAME IOVERLAY, 0, STATIC
        ARGFRAME DOVERLAY, 0, STATIC
        EXTERN HalLedBlink
        FUNCTION HalLedBlink,0202H
        ARGFRAME ISTACK, 0, STACK
        ARGFRAME PSTACK, 0, STACK
        ARGFRAME XSTACK, 9, STACK
        ARGFRAME IOVERLAY, 0, STATIC
        ARGFRAME DOVERLAY, 0, STATIC
        EXTERN HalLedSet
        FUNCTION HalLedSet,0202H
        ARGFRAME ISTACK, 0, STACK
        ARGFRAME PSTACK, 0, STACK
        ARGFRAME XSTACK, 12, STACK
        ARGFRAME IOVERLAY, 0, STATIC
        ARGFRAME DOVERLAY, 0, STATIC
        EXTERN HalUARTRead
        FUNCTION HalUARTRead,0202H
        ARGFRAME ISTACK, 0, STACK
        ARGFRAME PSTACK, 0, STACK
        ARGFRAME XSTACK, 145, STACK
        ARGFRAME IOVERLAY, 0, STATIC
        ARGFRAME DOVERLAY, 0, STATIC
        EXTERN HalUARTWrite
        FUNCTION HalUARTWrite,0202H
        ARGFRAME ISTACK, 0, STACK
        ARGFRAME PSTACK, 0, STACK
        ARGFRAME XSTACK, 145, STACK
        ARGFRAME IOVERLAY, 0, STATIC
        ARGFRAME DOVERLAY, 0, STATIC
        EXTERN initUart
        FUNCTION initUart,0202H
        ARGFRAME ISTACK, 0, STACK
        ARGFRAME PSTACK, 0, STACK
        ARGFRAME XSTACK, 9, STACK
        ARGFRAME IOVERLAY, 0, STATIC
        ARGFRAME DOVERLAY, 0, STATIC
        EXTERN osal_start_timerEx
        FUNCTION osal_start_timerEx,0202H
        ARGFRAME ISTACK, 0, STACK
        ARGFRAME PSTACK, 0, STACK
        ARGFRAME XSTACK, 16, STACK
        ARGFRAME IOVERLAY, 0, STATIC
        ARGFRAME DOVERLAY, 0, STATIC
        EXTERN sapi_TaskID
        EXTERN zb_AllowBind
        FUNCTION zb_AllowBind,0202H
        ARGFRAME ISTACK, 0, STACK
        ARGFRAME PSTACK, 0, STACK
        ARGFRAME XSTACK, 9, STACK
        ARGFRAME IOVERLAY, 0, STATIC
        ARGFRAME DOVERLAY, 0, STATIC
        EXTERN zb_SendDataRequest
        FUNCTION zb_SendDataRequest,0202H
        ARGFRAME ISTACK, 0, STACK
        ARGFRAME PSTACK, 0, STACK
        ARGFRAME XSTACK, 16, STACK
        ARGFRAME IOVERLAY, 0, STATIC
        ARGFRAME DOVERLAY, 0, STATIC
        EXTERN zb_StartRequest
        FUNCTION zb_StartRequest,0202H
        ARGFRAME ISTACK, 0, STACK
        ARGFRAME PSTACK, 0, STACK
        ARGFRAME XSTACK, 9, STACK
        ARGFRAME IOVERLAY, 0, STATIC
        ARGFRAME DOVERLAY, 0, STATIC

// C:\Users\DLeijen\Documents\WSN-Lab\Z-Stack Mesh 1.0.0\Projects\zstack\Samples\DemoApp\Source\DemoCoordinator.c
//    1 /**************************************************************************************************
//    2   Filename:       DemoCoordinator.c
//    3 
//    4   Description:    Coordinator application for the sensor demo utilizing Simple API.
//    5 
//    6                   The collector node can be set in a state where it accepts
//    7                   incoming reports from the sensor nodes, and can send the reports
//    8                   via the UART to a PC tool. The collector node in this state
//    9                   functions as a gateway. The collector nodes that are not in the
//   10                   gateway node function as routers in the network.
//   11 
//   12 
//   13   Copyright 2009 Texas Instruments Incorporated. All rights reserved.
//   14 
//   15   IMPORTANT: Your use of this Software is limited to those specific rights
//   16   granted under the terms of a software license agreement between the user
//   17   who downloaded the software, his/her employer (which must be your employer)
//   18   and Texas Instruments Incorporated (the "License").  You may not use this
//   19   Software unless you agree to abide by the terms of the License. The License
//   20   limits your use, and you acknowledge, that the Software may not be modified,
//   21   copied or distributed unless embedded on a Texas Instruments microcontroller
//   22   or used solely and exclusively in conjunction with a Texas Instruments radio
//   23   frequency transceiver, which is integrated into your product.  Other than for
//   24   the foregoing purpose, you may not use, reproduce, copy, prepare derivative
//   25   works of, modify, distribute, perform, display or sell this Software and/or
//   26   its documentation for any purpose.
//   27 
//   28   YOU FURTHER ACKNOWLEDGE AND AGREE THAT THE SOFTWARE AND DOCUMENTATION ARE
//   29   PROVIDED “AS IS” WITHOUT WARRANTY OF ANY KIND, EITHER EXPRESS OR IMPLIED,
//   30   INCLUDING WITHOUT LIMITATION, ANY WARRANTY OF MERCHANTABILITY, TITLE,
//   31   NON-INFRINGEMENT AND FITNESS FOR A PARTICULAR PURPOSE. IN NO EVENT SHALL
//   32   TEXAS INSTRUMENTS OR ITS LICENSORS BE LIABLE OR OBLIGATED UNDER CONTRACT,
//   33   NEGLIGENCE, STRICT LIABILITY, CONTRIBUTION, BREACH OF WARRANTY, OR OTHER
//   34   LEGAL EQUITABLE THEORY ANY DIRECT OR INDIRECT DAMAGES OR EXPENSES
//   35   INCLUDING BUT NOT LIMITED TO ANY INCIDENTAL, SPECIAL, INDIRECT, PUNITIVE
//   36   OR CONSEQUENTIAL DAMAGES, LOST PROFITS OR LOST DATA, COST OF PROCUREMENT
//   37   OF SUBSTITUTE GOODS, TECHNOLOGY, SERVICES, OR ANY CLAIMS BY THIRD PARTIES
//   38   (INCLUDING BUT NOT LIMITED TO ANY DEFENSE THEREOF), OR OTHER SIMILAR COSTS.
//   39 
//   40   Should you have any questions regarding your right to use this Software,
//   41   contact Texas Instruments Incorporated at www.TI.com.
//   42 **************************************************************************************************/
//   43 
//   44 /******************************************************************************
//   45  * INCLUDES
//   46  */
//   47 
//   48 #include "ZComDef.h"
//   49 #include "OSAL.h"
//   50 #include "OSAL_Nv.h"
//   51 #include "sapi.h"
//   52 #include "hal_key.h"

        ASEGN SFR_AN:DATA:NOROOT,080H
// union <unnamed> volatile __sfr _A_P0
_A_P0:
        DATA8
        DS 1

        ASEGN SFR_AN:DATA:NOROOT,08fH
// unsigned char volatile __sfr P0INP
P0INP:
        DATA8
        DS 1

        ASEGN SFR_AN:DATA:NOROOT,0f3H
// unsigned char volatile __sfr P0SEL
P0SEL:
        DATA8
        DS 1

        ASEGN SFR_AN:DATA:NOROOT,0f7H
// unsigned char volatile __sfr P2INP
P2INP:
        DATA8
        DS 1

        ASEGN SFR_AN:DATA:NOROOT,0fdH
// unsigned char volatile __sfr P0DIR
P0DIR:
        DATA8
        DS 1
//   53 #include "hal_led.h"
//   54 #include "hal_lcd.h"
//   55 #include "hal_uart.h"
//   56 #include "hal_adc.h"
//   57 #include "DemoApp.h"
//   58 
//   59 /******************************************************************************
//   60  * CONSTANTS
//   61  */
//   62 #define ACK_REQ_INTERVAL                    5 // each 5th packet is sent with ACK request
//   63 
//   64 // General UART frame offsets
//   65 #define FRAME_SOF_OFFSET                    0
//   66 #define FRAME_LENGTH_OFFSET                 1
//   67 #define FRAME_CMD0_OFFSET                   2
//   68 #define FRAME_CMD1_OFFSET                   3
//   69 #define FRAME_DATA_OFFSET                   4
//   70 
//   71 // Pin & port defines
//   72 #define PORT                                0
//   73 #define LDR_IN_ANALOG                       0
//   74 #define LOCK_IN_DIGITAL                     2
//   75 #define LED_OUT_DIGITAL                     4
//   76 #define DOOR_OUT_DIGITAL                    7   
//   77 
//   78 // ZB_RECEIVE_DATA_INDICATION offsets
//   79 #define ZB_RECV_SRC_OFFSET                  0
//   80 #define ZB_RECV_CMD_OFFSET                  2
//   81 #define ZB_RECV_LEN_OFFSET                  4
//   82 #define ZB_RECV_DATA_OFFSET                 6
//   83 #define ZB_RECV_FCS_OFFSET                  8
//   84 
//   85 // ZB_RECEIVE_DATA_INDICATION frame length
//   86 #define ZB_RECV_LENGTH                      15
//   87 
//   88 // PING response frame length and offset
//   89 #define SYS_PING_RSP_LENGTH                 7
//   90 #define SYS_PING_CMD_OFFSET                 1
//   91 
//   92 // Stack Profile
//   93 #define ZIGBEE_2007                         0x0040
//   94 #define ZIGBEE_PRO_2007                     0x0041
//   95 
//   96 #ifdef ZIGBEEPRO
//   97 #define STACK_PROFILE                       ZIGBEE_PRO_2007
//   98 #else
//   99 #define STACK_PROFILE                       ZIGBEE_2007
//  100 #endif
//  101 
//  102 #define CPT_SOP                             0xFE
//  103 #define SYS_PING_REQUEST                    0x0021
//  104 #define SYS_PING_RESPONSE                   0x0161
//  105 #define ZB_RECEIVE_DATA_INDICATION          0x8746
//  106 
//  107 #define POLL_DELAY                          1000
//  108 
//  109 // Application States
//  110 #define APP_INIT                            0
//  111 #define APP_START                           2
//  112 
//  113 // Application osal event identifiers
//  114 #define MY_START_EVT                        0x0001
//  115 #define POLL_TIMER_EVT                      0x0002
//  116 
//  117 /******************************************************************************
//  118  * LOCAL VARIABLES
//  119  */

        RSEG XDATA_Z:XDATA:NOROOT(0)
        DATA8
//  120 static uint8 appState =             APP_INIT;
appState:
        DS 1
        REQUIRE __INIT_XDATA_Z

        RSEG XDATA_I:XDATA:NOROOT(0)
//  121 static uint8 myStartRetryDelay =    10;          // milliseconds
myStartRetryDelay:
        DATA8
        DS 1
        REQUIRE `?<Initializer for myStartRetryDelay>`
        REQUIRE __INIT_XDATA_I

        RSEG XDATA_I:XDATA:NOROOT(0)
//  122 static uint8 doorOpen =             0xFF;
doorOpen:
        DATA8
        DS 1
        REQUIRE `?<Initializer for doorOpen>`
        REQUIRE __INIT_XDATA_I

        RSEG XDATA_Z:XDATA:NOROOT(0)
        DATA8
//  123 static bool lampTriggered =         false;
lampTriggered:
        DS 1
        REQUIRE __INIT_XDATA_Z

        RSEG XDATA_Z:XDATA:NOROOT(0)
        DATA8
//  124 static bool lastLockState =         false;
lastLockState:
        DS 1
        REQUIRE __INIT_XDATA_Z

        RSEG XDATA_Z:XDATA:NOROOT(0)
        DATA8
//  125 static uint8 reportFailureNr =      0;
reportFailureNr:
        DS 1
        REQUIRE __INIT_XDATA_Z

        RSEG XDATA_Z:XDATA:NOROOT(0)
        DATA16
//  126 static uint16 ADCValue;
ADCValue:
        DS 2
        REQUIRE __INIT_XDATA_Z
//  127 
//  128 /******************************************************************************
//  129  * LOCAL FUNCTIONS
//  130  */
//  131 
//  132 static uint8 calcFCS(uint8 *pBuf, uint8 len);
//  133 static void sysPingReqRcvd(void);
//  134 static void sysPingRsp(void);
//  135 void  sendCommand(uint8 command);
//  136 
//  137 /******************************************************************************
//  138  * GLOBAL VARIABLES
//  139  */
//  140 
//  141 // Inputs and Outputs for Collector device
//  142 #define NUM_OUT_CMD_COLLECTOR           1
//  143 #define NUM_IN_CMD_COLLECTOR            1
//  144 
//  145 // List of output and input commands for Collector device

        RSEG XDATA_ROM_C:CONST:REORDER:NOROOT(0)
        DATA16
//  146 const cId_t zb_OutCmdList[NUM_OUT_CMD_COLLECTOR] =
zb_OutCmdList:
        DW 4
//  147 {
//  148   COORD_REPORT_CMD_ID,
//  149 };

        RSEG XDATA_ROM_C:CONST:REORDER:NOROOT(0)
        DATA16
//  150 const cId_t zb_InCmdList[NUM_IN_CMD_COLLECTOR] =
zb_InCmdList:
        DW 3
//  151 {
//  152   ROUTER_REPORT_CMD_ID,
//  153 };
//  154 
//  155 // Define SimpleDescriptor for Collector device

        RSEG XDATA_ROM_C:CONST:REORDER:NOROOT(0)
        DATA8
//  156 const SimpleDescriptionFormat_t zb_SimpleDesc =
zb_SimpleDesc:
        DB 2
        DATA16
        DW 3872
        DW 2
        DATA8
        DB 1
        DB 1
        DATA16
        DW zb_InCmdList
        DATA8
        DB 1
        DATA16
        DW zb_OutCmdList
//  157 {
//  158   MY_ENDPOINT_ID,             //  Endpoint
//  159   MY_PROFILE_ID,              //  Profile ID
//  160   DEV_ID_COORDINATOR,         //  Device ID
//  161   DEVICE_VERSION_COLLECTOR,   //  Device Version
//  162   0,                          //  Reserved
//  163   NUM_IN_CMD_COLLECTOR,       //  Number of Input Commands
//  164   (cId_t *) zb_InCmdList,     //  Input Command List
//  165   NUM_OUT_CMD_COLLECTOR,      //  Number of Output Commands
//  166   (cId_t *) zb_OutCmdList     //  Output Command List
//  167 };
//  168 
//  169 /******************************************************************************
//  170  * FUNCTIONS
//  171  */
//  172 
//  173 /******************************************************************************
//  174  * @fn          zb_HandleOsalEvent
//  175  *
//  176  * @brief       The zb_HandleOsalEvent function is called by the operating
//  177  *              system when a task event is set
//  178  *
//  179  * @param       event - Bitmask containing the events that have been set
//  180  *
//  181  * @return      none
//  182  */

        RSEG BANKED_CODE:CODE:NOROOT(0)
//  183 void zb_HandleOsalEvent( uint16 event )
zb_HandleOsalEvent:
          CFI Block cfiBlock0 Using cfiCommon0
          CFI Function zb_HandleOsalEvent
        CODE
//  184 {
        FUNCALL zb_HandleOsalEvent, initUart
        LOCFRAME ISTACK, 0, STACK
        LOCFRAME PSTACK, 0, STACK
        LOCFRAME XSTACK, 9, STACK
        LOCFRAME IOVERLAY, 0, STATIC
        LOCFRAME DOVERLAY, 0, STATIC
        ARGFRAME ISTACK, 0, STACK
        ARGFRAME PSTACK, 0, STACK
        ARGFRAME XSTACK, 9, STACK
        ARGFRAME IOVERLAY, 0, STATIC
        ARGFRAME DOVERLAY, 0, STATIC
        FUNCALL zb_HandleOsalEvent, HalLedBlink
        LOCFRAME ISTACK, 0, STACK
        LOCFRAME PSTACK, 0, STACK
        LOCFRAME XSTACK, 9, STACK
        LOCFRAME IOVERLAY, 0, STATIC
        LOCFRAME DOVERLAY, 0, STATIC
        ARGFRAME ISTACK, 0, STACK
        ARGFRAME PSTACK, 0, STACK
        ARGFRAME XSTACK, 9, STACK
        ARGFRAME IOVERLAY, 0, STATIC
        ARGFRAME DOVERLAY, 0, STATIC
        FUNCALL zb_HandleOsalEvent, HalLedSet
        LOCFRAME ISTACK, 0, STACK
        LOCFRAME PSTACK, 0, STACK
        LOCFRAME XSTACK, 9, STACK
        LOCFRAME IOVERLAY, 0, STATIC
        LOCFRAME DOVERLAY, 0, STATIC
        ARGFRAME ISTACK, 0, STACK
        ARGFRAME PSTACK, 0, STACK
        ARGFRAME XSTACK, 9, STACK
        ARGFRAME IOVERLAY, 0, STATIC
        ARGFRAME DOVERLAY, 0, STATIC
        FUNCALL zb_HandleOsalEvent, HalAdcInit
        LOCFRAME ISTACK, 0, STACK
        LOCFRAME PSTACK, 0, STACK
        LOCFRAME XSTACK, 9, STACK
        LOCFRAME IOVERLAY, 0, STATIC
        LOCFRAME DOVERLAY, 0, STATIC
        ARGFRAME ISTACK, 0, STACK
        ARGFRAME PSTACK, 0, STACK
        ARGFRAME XSTACK, 9, STACK
        ARGFRAME IOVERLAY, 0, STATIC
        ARGFRAME DOVERLAY, 0, STATIC
        FUNCALL zb_HandleOsalEvent, osal_start_timerEx
        LOCFRAME ISTACK, 0, STACK
        LOCFRAME PSTACK, 0, STACK
        LOCFRAME XSTACK, 13, STACK
        LOCFRAME IOVERLAY, 0, STATIC
        LOCFRAME DOVERLAY, 0, STATIC
        ARGFRAME ISTACK, 0, STACK
        ARGFRAME PSTACK, 0, STACK
        ARGFRAME XSTACK, 13, STACK
        ARGFRAME IOVERLAY, 0, STATIC
        ARGFRAME DOVERLAY, 0, STATIC
        FUNCALL zb_HandleOsalEvent, zb_AllowBind
        LOCFRAME ISTACK, 0, STACK
        LOCFRAME PSTACK, 0, STACK
        LOCFRAME XSTACK, 9, STACK
        LOCFRAME IOVERLAY, 0, STATIC
        LOCFRAME DOVERLAY, 0, STATIC
        ARGFRAME ISTACK, 0, STACK
        ARGFRAME PSTACK, 0, STACK
        ARGFRAME XSTACK, 9, STACK
        ARGFRAME IOVERLAY, 0, STATIC
        ARGFRAME DOVERLAY, 0, STATIC
        FUNCALL zb_HandleOsalEvent, HalLedSet
        LOCFRAME ISTACK, 0, STACK
        LOCFRAME PSTACK, 0, STACK
        LOCFRAME XSTACK, 9, STACK
        LOCFRAME IOVERLAY, 0, STATIC
        LOCFRAME DOVERLAY, 0, STATIC
        ARGFRAME ISTACK, 0, STACK
        ARGFRAME PSTACK, 0, STACK
        ARGFRAME XSTACK, 9, STACK
        ARGFRAME IOVERLAY, 0, STATIC
        ARGFRAME DOVERLAY, 0, STATIC
        FUNCALL zb_HandleOsalEvent, zb_StartRequest
        LOCFRAME ISTACK, 0, STACK
        LOCFRAME PSTACK, 0, STACK
        LOCFRAME XSTACK, 9, STACK
        LOCFRAME IOVERLAY, 0, STATIC
        LOCFRAME DOVERLAY, 0, STATIC
        ARGFRAME ISTACK, 0, STACK
        ARGFRAME PSTACK, 0, STACK
        ARGFRAME XSTACK, 9, STACK
        ARGFRAME IOVERLAY, 0, STATIC
        ARGFRAME DOVERLAY, 0, STATIC
        FUNCALL zb_HandleOsalEvent, zb_StartRequest
        LOCFRAME ISTACK, 0, STACK
        LOCFRAME PSTACK, 0, STACK
        LOCFRAME XSTACK, 9, STACK
        LOCFRAME IOVERLAY, 0, STATIC
        LOCFRAME DOVERLAY, 0, STATIC
        ARGFRAME ISTACK, 0, STACK
        ARGFRAME PSTACK, 0, STACK
        ARGFRAME XSTACK, 9, STACK
        ARGFRAME IOVERLAY, 0, STATIC
        ARGFRAME DOVERLAY, 0, STATIC
        FUNCALL zb_HandleOsalEvent, HalAdcRead
        LOCFRAME ISTACK, 0, STACK
        LOCFRAME PSTACK, 0, STACK
        LOCFRAME XSTACK, 9, STACK
        LOCFRAME IOVERLAY, 0, STATIC
        LOCFRAME DOVERLAY, 0, STATIC
        ARGFRAME ISTACK, 0, STACK
        ARGFRAME PSTACK, 0, STACK
        ARGFRAME XSTACK, 9, STACK
        ARGFRAME IOVERLAY, 0, STATIC
        ARGFRAME DOVERLAY, 0, STATIC
        FUNCALL zb_HandleOsalEvent, sendCommand
        LOCFRAME ISTACK, 0, STACK
        LOCFRAME PSTACK, 0, STACK
        LOCFRAME XSTACK, 9, STACK
        LOCFRAME IOVERLAY, 0, STATIC
        LOCFRAME DOVERLAY, 0, STATIC
        ARGFRAME ISTACK, 0, STACK
        ARGFRAME PSTACK, 0, STACK
        ARGFRAME XSTACK, 9, STACK
        ARGFRAME IOVERLAY, 0, STATIC
        ARGFRAME DOVERLAY, 0, STATIC
        FUNCALL zb_HandleOsalEvent, sendCommand
        LOCFRAME ISTACK, 0, STACK
        LOCFRAME PSTACK, 0, STACK
        LOCFRAME XSTACK, 9, STACK
        LOCFRAME IOVERLAY, 0, STATIC
        LOCFRAME DOVERLAY, 0, STATIC
        ARGFRAME ISTACK, 0, STACK
        ARGFRAME PSTACK, 0, STACK
        ARGFRAME XSTACK, 9, STACK
        ARGFRAME IOVERLAY, 0, STATIC
        ARGFRAME DOVERLAY, 0, STATIC
        FUNCALL zb_HandleOsalEvent, sendCommand
        LOCFRAME ISTACK, 0, STACK
        LOCFRAME PSTACK, 0, STACK
        LOCFRAME XSTACK, 9, STACK
        LOCFRAME IOVERLAY, 0, STATIC
        LOCFRAME DOVERLAY, 0, STATIC
        ARGFRAME ISTACK, 0, STACK
        ARGFRAME PSTACK, 0, STACK
        ARGFRAME XSTACK, 9, STACK
        ARGFRAME IOVERLAY, 0, STATIC
        ARGFRAME DOVERLAY, 0, STATIC
        FUNCALL zb_HandleOsalEvent, sendCommand
        LOCFRAME ISTACK, 0, STACK
        LOCFRAME PSTACK, 0, STACK
        LOCFRAME XSTACK, 9, STACK
        LOCFRAME IOVERLAY, 0, STATIC
        LOCFRAME DOVERLAY, 0, STATIC
        ARGFRAME ISTACK, 0, STACK
        ARGFRAME PSTACK, 0, STACK
        ARGFRAME XSTACK, 9, STACK
        ARGFRAME IOVERLAY, 0, STATIC
        ARGFRAME DOVERLAY, 0, STATIC
        FUNCALL zb_HandleOsalEvent, osal_start_timerEx
        LOCFRAME ISTACK, 0, STACK
        LOCFRAME PSTACK, 0, STACK
        LOCFRAME XSTACK, 13, STACK
        LOCFRAME IOVERLAY, 0, STATIC
        LOCFRAME DOVERLAY, 0, STATIC
        ARGFRAME ISTACK, 0, STACK
        ARGFRAME PSTACK, 0, STACK
        ARGFRAME XSTACK, 13, STACK
        ARGFRAME IOVERLAY, 0, STATIC
        ARGFRAME DOVERLAY, 0, STATIC
        MOV     A,#-0x9
        LCALL   ?BANKED_ENTER_XDATA
          CFI DPH0 load(1, XDATA, add(CFA_XSP16, literal(-1)))
          CFI DPL0 load(1, XDATA, add(CFA_XSP16, literal(-2)))
          CFI ?BRET_EXT load(1, XDATA, add(CFA_XSP16, literal(-3)))
          CFI ?RET_HIGH load(1, XDATA, add(CFA_XSP16, literal(-4)))
          CFI ?RET_LOW load(1, XDATA, add(CFA_XSP16, literal(-5)))
          CFI R7 load(1, XDATA, add(CFA_XSP16, literal(-6)))
          CFI V0 load(1, XDATA, add(CFA_XSP16, literal(-7)))
          CFI VB load(1, XDATA, add(CFA_XSP16, literal(-8)))
          CFI R6 load(1, XDATA, add(CFA_XSP16, literal(-9)))
          CFI CFA_SP SP+0
          CFI CFA_XSP16 add(XSP16, 9)
        ; Saved register size: 9
        ; Auto size: 0
        MOV     A,R2
        MOV     R6,A
        MOV     A,R3
//  185   if( event & SYS_EVENT_MSG )
//  186   {
//  187   }
//  188 
//  189   if( event & ZB_ENTRY_EVENT )
        ANL     A,#0x10
        JZ      ??zb_HandleOsalEvent_0
//  190   {
//  191     // Initialise UART
//  192     initUart(uartRxCB);
        ; Setup parameters for call to function initUart
        MOV     R2,#`??uartRxCB::?relay` & 0xff
        MOV     R3,#(`??uartRxCB::?relay` >> 8) & 0xff
        LCALL   `??initUart::?relay` ; Banked call to: initUart
//  193 
//  194     // blind LED 1 to indicate starting/joining a network
//  195     HalLedBlink ( HAL_LED_1, 0, 50, 500 );
        ; Setup parameters for call to function HalLedBlink
        MOV     R4,#-0xc
        MOV     R5,#0x1
        MOV     R3,#0x32
        MOV     R2,#0x0
        MOV     R1,#0x1
        LCALL   `??HalLedBlink::?relay`; Banked call to: HalLedBlink
//  196     HalLedSet( HAL_LED_2, HAL_LED_MODE_OFF );
        ; Setup parameters for call to function HalLedSet
        MOV     R2,#0x0
        MOV     R1,#0x2
        LCALL   `??HalLedSet::?relay`; Banked call to: HalLedSet
//  197 
//  198     //Initiate ADC
//  199     HalAdcInit();
        ; Setup parameters for call to function HalAdcInit
        LCALL   `??HalAdcInit::?relay`; Banked call to: HalAdcInit
//  200       
//  201     //Initiate GPIO
//  202     MCU_IO_DIR_OUTPUT(PORT, LED_OUT_DIGITAL);
        ORL     0xfd,#0x10
//  203     MCU_IO_DIR_OUTPUT(PORT, DOOR_OUT_DIGITAL);
        ORL     0xfd,#0x80
//  204     MCU_IO_INPUT(PORT, LOCK_IN_DIGITAL, MCU_IO_PULLDOWN);
        ANL     0xf3,#0xfb
        ANL     0xfd,#0xfb
        ANL     0x8f,#0xfb
        ORL     0xf7,#0x20
//  205     osal_start_timerEx( sapi_TaskID, POLL_TIMER_EVT, POLL_DELAY );
        ; Setup parameters for call to function osal_start_timerEx
        MOV     DPTR,#__Constant_3e8
        LCALL   ?PUSH_XSTACK8_X_FOUR
          CFI CFA_XSP16 add(XSP16, 13)
        MOV     R2,#0x2
        MOV     R3,#0x0
        MOV     DPTR,#sapi_TaskID
        MOVX    A,@DPTR
        MOV     R1,A
        LCALL   `??osal_start_timerEx::?relay`; Banked call to: osal_start_timerEx
        MOV     A,#0x4
        LCALL   ?DEALLOC_XSTACK8
          CFI CFA_XSP16 add(XSP16, 9)
//  206     
//  207     zb_AllowBind( 0xFF );
        ; Setup parameters for call to function zb_AllowBind
        MOV     R1,#-0x1
        LCALL   `??zb_AllowBind::?relay`; Banked call to: zb_AllowBind
//  208     HalLedSet( HAL_LED_2, HAL_LED_MODE_ON );
        ; Setup parameters for call to function HalLedSet
        MOV     R2,#0x1
        MOV     R1,#0x2
        LCALL   `??HalLedSet::?relay`; Banked call to: HalLedSet
//  209     
//  210     // Start the device
//  211     zb_StartRequest();
        ; Setup parameters for call to function zb_StartRequest
        LCALL   `??zb_StartRequest::?relay`; Banked call to: zb_StartRequest
//  212   }
//  213 
//  214   if ( event & MY_START_EVT )
??zb_HandleOsalEvent_0:
        MOV     A,R6
        MOV     C,0xE0 /* A   */.0
        JNC     ??zb_HandleOsalEvent_1
//  215   {
//  216     zb_StartRequest();
        ; Setup parameters for call to function zb_StartRequest
        LCALL   `??zb_StartRequest::?relay`; Banked call to: zb_StartRequest
//  217   }
//  218   if ( event & POLL_TIMER_EVT )
??zb_HandleOsalEvent_1:
        MOV     A,R6
        ANL     A,#0x2
        JZ      ??zb_HandleOsalEvent_2
//  219   {
//  220     ADCValue = HalAdcRead(HAL_ADC_CHN_AIN0, HAL_ADC_RESOLUTION_8);
        ; Setup parameters for call to function HalAdcRead
        MOV     R2,#0x1
        MOV     R1,#0x0
        LCALL   `??HalAdcRead::?relay`; Banked call to: HalAdcRead
        MOV     DPTR,#ADCValue
        MOV     A,R2
        MOVX    @DPTR,A
        INC     DPTR
        MOV     A,R3
        MOVX    @DPTR,A
//  221     bool lampWasOn = MCU_IO_GET(PORT, LED_OUT_DIGITAL);
        MOV     A,0x80
        ANL     A,#0x10
        MOV     R1,A
//  222     if (ADCValue > 110) 
        MOV     DPTR,#ADCValue
        CLR     C
        MOVX    A,@DPTR
        SUBB    A,#0x6f
        INC     DPTR
        MOVX    A,@DPTR
        SUBB    A,#0x0
        JC      ??zb_HandleOsalEvent_3
//  223     {  
//  224       MCU_IO_SET(PORT, LED_OUT_DIGITAL, lampTriggered);
        MOV     DPTR,#lampTriggered
        MOVX    A,@DPTR
        MOV     R0,A
        MOV     C,0xE0 /* A   */.0
        MOV     0x80.4,C
//  225       if (lampTriggered && !lampWasOn)
        JZ      ??zb_HandleOsalEvent_4
        MOV     A,R1
        JNZ     ??zb_HandleOsalEvent_4
//  226       {
//  227         sendCommand(LAMP_ON);
        ; Setup parameters for call to function sendCommand
        MOV     R1,#-0xc
        SJMP    ??zb_HandleOsalEvent_5
//  228       }
//  229     }
//  230     else 
//  231     {
//  232       MCU_IO_SET_LOW(PORT, LED_OUT_DIGITAL);
??zb_HandleOsalEvent_3:
        CLR     0x80.4
//  233       if (lampWasOn)
        MOV     A,R1
        JZ      ??zb_HandleOsalEvent_4
//  234       {
//  235         sendCommand(LAMP_OFF);
        ; Setup parameters for call to function sendCommand
        MOV     R1,#-0xb
??zb_HandleOsalEvent_5:
        LCALL   `??sendCommand::?relay`; Banked call to: sendCommand
//  236       }
//  237     }
//  238     
//  239     if (MCU_IO_GET(PORT, LOCK_IN_DIGITAL) != lastLockState)
??zb_HandleOsalEvent_4:
        MOV     A,0x80
        ANL     A,#0x4
        MOV     R0,A
        MOV     DPTR,#lastLockState
        MOVX    A,@DPTR
        XRL     A,R0
        JZ      ??zb_HandleOsalEvent_6
//  240     {
//  241       lastLockState = MCU_IO_GET(PORT, LOCK_IN_DIGITAL);
        MOV     A,0x80
        ANL     A,#0x4
        MOVX    @DPTR,A
//  242       
//  243       if (!lastLockState) 
        JNZ     ??zb_HandleOsalEvent_7
//  244       {
//  245         sendCommand(DOOR_LOCKED);
        ; Setup parameters for call to function sendCommand
        MOV     R1,#-0xe
        SJMP    ??zb_HandleOsalEvent_8
//  246       }
//  247       else
//  248       {
//  249         sendCommand(DOOR_UNLOCKED);
??zb_HandleOsalEvent_7:
        ; Setup parameters for call to function sendCommand
        MOV     R1,#-0xd
??zb_HandleOsalEvent_8:
        LCALL   `??sendCommand::?relay`; Banked call to: sendCommand
//  250       }
//  251     }
//  252     osal_start_timerEx( sapi_TaskID, POLL_TIMER_EVT, POLL_DELAY );
??zb_HandleOsalEvent_6:
        ; Setup parameters for call to function osal_start_timerEx
        MOV     DPTR,#__Constant_3e8
        LCALL   ?PUSH_XSTACK8_X_FOUR
          CFI CFA_XSP16 add(XSP16, 13)
        MOV     R2,#0x2
        MOV     R3,#0x0
        MOV     DPTR,#sapi_TaskID
        MOVX    A,@DPTR
        MOV     R1,A
        LCALL   `??osal_start_timerEx::?relay`; Banked call to: osal_start_timerEx
        MOV     A,#0x4
        LCALL   ?DEALLOC_XSTACK8
          CFI CFA_XSP16 add(XSP16, 9)
//  253   }
//  254 }
??zb_HandleOsalEvent_2:
        MOV     R7,#0x1
        LJMP    ?BANKED_LEAVE_XDATA
          CFI R6 SameValue
          CFI VB SameValue
          CFI V0 SameValue
          CFI R7 SameValue
          CFI ?RET_LOW Frame(CFA_SP, 1)
          CFI ?RET_HIGH Frame(CFA_SP, 2)
          CFI ?BRET_EXT Frame(CFA_SP, 3)
          CFI DPL0 SameValue
          CFI DPH0 SameValue
          CFI CFA_SP SP+-3
          CFI CFA_XSP16 XSP16+0
          CFI EndBlock cfiBlock0
        REQUIRE P0DIR
        REQUIRE P0SEL
        REQUIRE P0INP
        REQUIRE P2INP
        REQUIRE _A_P0
//  255 
//  256 /******************************************************************************
//  257  * @fn      zb_HandleKeys
//  258  *
//  259  * @brief   Handles all key events for this device.
//  260  *
//  261  * @param   shift - true if in shift/alt.
//  262  * @param   keys - bit field for key events. Valid entries:
//  263  *                 EVAL_SW4
//  264  *                 EVAL_SW3
//  265  *                 EVAL_SW2
//  266  *                 EVAL_SW1
//  267  *
//  268  * @return  none
//  269  */

        RSEG BANKED_CODE:CODE:NOROOT(0)
//  270 void zb_HandleKeys( uint8 shift, uint8 keys )
zb_HandleKeys:
          CFI Block cfiBlock1 Using cfiCommon0
          CFI Function zb_HandleKeys
        CODE
//  271 {
        ; Saved register size: 0
        ; Auto size: 0
//  272 
//  273   // Shift is used to make each button/switch dual purpose.
//  274   if ( shift )
//  275   {
//  276     if ( keys & HAL_KEY_SW_1 )
//  277     {
//  278     }
//  279     if ( keys & HAL_KEY_SW_2 )
//  280     {
//  281     }
//  282     if ( keys & HAL_KEY_SW_3 )
//  283     {
//  284     }
//  285     if ( keys & HAL_KEY_SW_4 )
//  286     {
//  287     }
//  288   }
//  289   else
//  290   {
//  291     if ( keys & HAL_KEY_SW_1 )
//  292     {
//  293     }
//  294     if ( keys & HAL_KEY_SW_2 )
//  295     {
//  296     }
//  297     if ( keys & HAL_KEY_SW_3 )
//  298     {
//  299     }
//  300     if ( keys & HAL_KEY_SW_4 )
//  301     {
//  302     }
//  303   }
//  304 }
        LJMP    ?BRET
          CFI EndBlock cfiBlock1
//  305 
//  306 /******************************************************************************
//  307  * @fn          zb_StartConfirm
//  308  *
//  309  * @brief       The zb_StartConfirm callback is called by the ZigBee stack
//  310  *              after a start request operation completes
//  311  *
//  312  * @param       status - The status of the start operation.  Status of
//  313  *                       ZB_SUCCESS indicates the start operation completed
//  314  *                       successfully.  Else the status is an error code.
//  315  *
//  316  * @return      none
//  317  */

        RSEG BANKED_CODE:CODE:NOROOT(0)
//  318 void zb_StartConfirm( uint8 status )
zb_StartConfirm:
          CFI Block cfiBlock2 Using cfiCommon0
          CFI Function zb_StartConfirm
        CODE
//  319 {
        FUNCALL zb_StartConfirm, HalLedSet
        LOCFRAME ISTACK, 0, STACK
        LOCFRAME PSTACK, 0, STACK
        LOCFRAME XSTACK, 12, STACK
        LOCFRAME IOVERLAY, 0, STATIC
        LOCFRAME DOVERLAY, 0, STATIC
        ARGFRAME ISTACK, 0, STACK
        ARGFRAME PSTACK, 0, STACK
        ARGFRAME XSTACK, 12, STACK
        ARGFRAME IOVERLAY, 0, STATIC
        ARGFRAME DOVERLAY, 0, STATIC
        FUNCALL zb_StartConfirm, osal_start_timerEx
        LOCFRAME ISTACK, 0, STACK
        LOCFRAME PSTACK, 0, STACK
        LOCFRAME XSTACK, 16, STACK
        LOCFRAME IOVERLAY, 0, STATIC
        LOCFRAME DOVERLAY, 0, STATIC
        ARGFRAME ISTACK, 0, STACK
        ARGFRAME PSTACK, 0, STACK
        ARGFRAME XSTACK, 16, STACK
        ARGFRAME IOVERLAY, 0, STATIC
        ARGFRAME DOVERLAY, 0, STATIC
        REQUIRE ?V0
        REQUIRE ?V1
        REQUIRE ?V2
        REQUIRE ?V3
        MOV     A,#-0xc
        LCALL   ?BANKED_ENTER_XDATA
          CFI DPH0 load(1, XDATA, add(CFA_XSP16, literal(-1)))
          CFI DPL0 load(1, XDATA, add(CFA_XSP16, literal(-2)))
          CFI ?BRET_EXT load(1, XDATA, add(CFA_XSP16, literal(-3)))
          CFI ?RET_HIGH load(1, XDATA, add(CFA_XSP16, literal(-4)))
          CFI ?RET_LOW load(1, XDATA, add(CFA_XSP16, literal(-5)))
          CFI R7 load(1, XDATA, add(CFA_XSP16, literal(-6)))
          CFI V3 load(1, XDATA, add(CFA_XSP16, literal(-7)))
          CFI V2 load(1, XDATA, add(CFA_XSP16, literal(-8)))
          CFI V1 load(1, XDATA, add(CFA_XSP16, literal(-9)))
          CFI V0 load(1, XDATA, add(CFA_XSP16, literal(-10)))
          CFI VB load(1, XDATA, add(CFA_XSP16, literal(-11)))
          CFI R6 load(1, XDATA, add(CFA_XSP16, literal(-12)))
          CFI CFA_SP SP+0
          CFI CFA_XSP16 add(XSP16, 12)
        ; Saved register size: 12
        ; Auto size: 0
        MOV     A,R1
//  320   // If the device sucessfully started, change state to running
//  321   if ( status == ZB_SUCCESS )
        JNZ     ??zb_StartConfirm_0
//  322   {
//  323     // Set LED 1 to indicate that node is operational on the network
//  324     HalLedSet( HAL_LED_1, HAL_LED_MODE_ON );
        ; Setup parameters for call to function HalLedSet
        MOV     R2,#0x1
        MOV     R1,#0x1
        LCALL   `??HalLedSet::?relay`; Banked call to: HalLedSet
//  325 
//  326     // Change application state
//  327     appState = APP_START;
        MOV     DPTR,#appState
        MOV     A,#0x2
        MOVX    @DPTR,A
        SJMP    ??zb_StartConfirm_1
//  328   }
//  329   else
//  330   {
//  331     // Try again later with a delay
//  332     osal_start_timerEx( sapi_TaskID, MY_START_EVT, myStartRetryDelay );
??zb_StartConfirm_0:
        ; Setup parameters for call to function osal_start_timerEx
        MOV     DPTR,#myStartRetryDelay
        MOVX    A,@DPTR
        MOV     ?V0,A
        CLR     A
        MOV     ?V1,A
        MOV     ?V2,A
        MOV     ?V3,A
        MOV     R0,#?V0
        LCALL   ?PUSH_XSTACK_I_FOUR
          CFI CFA_XSP16 add(XSP16, 16)
        MOV     R2,#0x1
        MOV     R3,#0x0
        MOV     DPTR,#sapi_TaskID
        MOVX    A,@DPTR
        MOV     R1,A
        LCALL   `??osal_start_timerEx::?relay`; Banked call to: osal_start_timerEx
        MOV     A,#0x4
        LCALL   ?DEALLOC_XSTACK8
          CFI CFA_XSP16 add(XSP16, 12)
//  333   }
//  334 }
??zb_StartConfirm_1:
        MOV     R7,#0x4
        LJMP    ?BANKED_LEAVE_XDATA
          CFI R6 SameValue
          CFI VB SameValue
          CFI V0 SameValue
          CFI V1 SameValue
          CFI V2 SameValue
          CFI V3 SameValue
          CFI R7 SameValue
          CFI ?RET_LOW Frame(CFA_SP, 1)
          CFI ?RET_HIGH Frame(CFA_SP, 2)
          CFI ?BRET_EXT Frame(CFA_SP, 3)
          CFI DPL0 SameValue
          CFI DPH0 SameValue
          CFI CFA_SP SP+-3
          CFI CFA_XSP16 XSP16+0
          CFI EndBlock cfiBlock2
//  335 
//  336 /******************************************************************************
//  337  * @fn          zb_SendDataConfirm
//  338  *
//  339  * @brief       The zb_SendDataConfirm callback function is called by the
//  340  *              ZigBee stack after a send data operation completes
//  341  *
//  342  * @param       handle - The handle identifying the data transmission.
//  343  *              status - The status of the operation.
//  344  *
//  345  * @return      none
//  346  */

        RSEG BANKED_CODE:CODE:NOROOT(0)
//  347 void zb_SendDataConfirm( uint8 handle, uint8 status )
zb_SendDataConfirm:
          CFI Block cfiBlock3 Using cfiCommon0
          CFI Function zb_SendDataConfirm
        CODE
//  348 {
        ; Saved register size: 0
        ; Auto size: 0
//  349    (void) handle;
//  350    (void) status;
//  351 }
        LJMP    ?BRET
          CFI EndBlock cfiBlock3
//  352 
//  353 /******************************************************************************
//  354  * @fn          zb_BindConfirm
//  355  *
//  356  * @brief       The zb_BindConfirm callback is called by the ZigBee stack
//  357  *              after a bind operation completes.
//  358  *
//  359  * @param       commandId - The command ID of the binding being confirmed.
//  360  *              status - The status of the bind operation.
//  361  *
//  362  * @return      none
//  363  */

        RSEG BANKED_CODE:CODE:NOROOT(0)
//  364 void zb_BindConfirm( uint16 commandId, uint8 status )
zb_BindConfirm:
          CFI Block cfiBlock4 Using cfiCommon0
          CFI Function zb_BindConfirm
        CODE
//  365 {
        ; Saved register size: 0
        ; Auto size: 0
//  366   (void)commandId;
//  367   (void)status;
//  368 }
        LJMP    ?BRET
          CFI EndBlock cfiBlock4
//  369 
//  370 /******************************************************************************
//  371  * @fn          zb_AllowBindConfirm
//  372  *
//  373  * @brief       Indicates when another device attempted to bind to this device
//  374  *
//  375  * @param
//  376  *
//  377  * @return      none
//  378  */

        RSEG BANKED_CODE:CODE:NOROOT(0)
//  379 void zb_AllowBindConfirm( uint16 source )
zb_AllowBindConfirm:
          CFI Block cfiBlock5 Using cfiCommon0
          CFI Function zb_AllowBindConfirm
        CODE
//  380 {
        ; Saved register size: 0
        ; Auto size: 0
//  381   (void)source;
//  382 }
        LJMP    ?BRET
          CFI EndBlock cfiBlock5
//  383 
//  384 /******************************************************************************
//  385  * @fn          zb_FindDeviceConfirm
//  386  *
//  387  * @brief       The zb_FindDeviceConfirm callback function is called by the
//  388  *              ZigBee stack when a find device operation completes.
//  389  *
//  390  * @param       searchType - The type of search that was performed.
//  391  *              searchKey - Value that the search was executed on.
//  392  *              result - The result of the search.
//  393  *
//  394  * @return      none
//  395  */

        RSEG BANKED_CODE:CODE:NOROOT(0)
//  396 void zb_FindDeviceConfirm( uint8 searchType, uint8 *searchKey, uint8 *result )
zb_FindDeviceConfirm:
          CFI Block cfiBlock6 Using cfiCommon0
          CFI Function zb_FindDeviceConfirm
        CODE
//  397 {
        ; Saved register size: 0
        ; Auto size: 0
//  398   (void)searchType;
//  399   (void)searchKey;
//  400   (void)result;
//  401 }
        LJMP    ?BRET
          CFI EndBlock cfiBlock6
//  402 
//  403 /******************************************************************************
//  404  * @fn          zb_ReceiveDataIndication
//  405  *
//  406  * @brief       The zb_ReceiveDataIndication callback function is called
//  407  *              asynchronously by the ZigBee stack to notify the application
//  408  *              when data is received from a peer device.
//  409  *
//  410  * @param       source - The short address of the peer device that sent the data
//  411  *              command - The commandId associated with the data
//  412  *              len - The number of bytes in the pData parameter
//  413  *              pData - The data sent by the peer device
//  414  *
//  415  * @return      none
//  416  */

        RSEG BANKED_CODE:CODE:NOROOT(0)
//  417 void zb_ReceiveDataIndication( uint16 source, uint16 command, uint16 len, uint8 *pData  )
zb_ReceiveDataIndication:
          CFI Block cfiBlock7 Using cfiCommon0
          CFI Function zb_ReceiveDataIndication
        CODE
//  418 {
        PUSH    DPL
          CFI DPL0 Frame(CFA_SP, 4)
          CFI CFA_SP SP+-4
        PUSH    DPH
          CFI DPH0 Frame(CFA_SP, 5)
          CFI CFA_SP SP+-5
        ; Saved register size: 2
        ; Auto size: 0
        MOV     DPL,?XSP + 0
        MOV     DPH,?XSP + 1
        MOVX    A,@DPTR
        MOV     R2,A
        INC     DPTR
        MOVX    A,@DPTR
        MOV     R3,A
        MOV     A,#0x2
        LCALL   ?XSTACK_DISP0_8
        MOVX    A,@DPTR
        MOV     R0,A
        INC     DPTR
        MOVX    A,@DPTR
        MOV     R1,A
        MOV     A,R0
        ADD     A,R2
        MOV     R0,A
        MOV     A,R1
        ADDC    A,R3
        MOV     R1,A
        MOV     A,R0
        ADD     A,#-0x1
        MOV     DPL,A
        MOV     A,R1
        ADDC    A,#-0x1
        MOV     DPH,A
        MOVX    A,@DPTR
        MOV     R0,A
        MOV     A,#-0x10
        XRL     A,R0
        JNZ     ??zb_ReceiveDataIndication_0
//  419   if (pData[len-1] == DOOR_BUTTON_PRESSED) 
//  420   {
//  421     doorOpen = !doorOpen;
        MOV     DPTR,#doorOpen
        MOVX    A,@DPTR
        JNZ     ??zb_ReceiveDataIndication_1
        MOV     A,#0x1
        SJMP    ??zb_ReceiveDataIndication_2
??zb_ReceiveDataIndication_1:
        MOV     A,#0x0
??zb_ReceiveDataIndication_2:
        MOVX    @DPTR,A
//  422     if (doorOpen) {
        MOV     C,0xE0 /* A   */.0
        JNC     ??zb_ReceiveDataIndication_3
//  423       MCU_IO_SET_HIGH(PORT, DOOR_OUT_DIGITAL);
        SETB    0x80.7
        SJMP    ??zb_ReceiveDataIndication_4
//  424     }
//  425     else
//  426     {
//  427       MCU_IO_SET_LOW(PORT, DOOR_OUT_DIGITAL);
??zb_ReceiveDataIndication_3:
        CLR     0x80.7
        SJMP    ??zb_ReceiveDataIndication_4
//  428     }
//  429   }
//  430   else if (pData[len-1] == LAMP_BUTTON_PRESSED)
??zb_ReceiveDataIndication_0:
        MOV     A,#-0xf
        XRL     A,R0
        JNZ     ??zb_ReceiveDataIndication_4
//  431   {
//  432     lampTriggered = !lampTriggered;
        MOV     DPTR,#lampTriggered
        MOVX    A,@DPTR
        JNZ     ??zb_ReceiveDataIndication_5
        MOV     A,#0x1
        SJMP    ??zb_ReceiveDataIndication_6
??zb_ReceiveDataIndication_5:
        MOV     A,#0x0
??zb_ReceiveDataIndication_6:
        MOVX    @DPTR,A
//  433   }
//  434 }
??zb_ReceiveDataIndication_4:
        POP     DPH
          CFI DPH0 SameValue
          CFI CFA_SP SP+-4
        POP     DPL
          CFI DPL0 SameValue
          CFI CFA_SP SP+-3
        LJMP    ?BRET
          CFI EndBlock cfiBlock7
        REQUIRE _A_P0
//  435 
//  436 /******************************************************************************
//  437  * @fn          uartRxCB
//  438  *
//  439  * @brief       Callback function for UART
//  440  *
//  441  * @param       port - UART port
//  442  *              event - UART event that caused callback
//  443  *
//  444  * @return      none
//  445  */

        RSEG BANKED_CODE:CODE:NOROOT(0)
//  446 void uartRxCB( uint8 port, uint8 event )
uartRxCB:
          CFI Block cfiBlock8 Using cfiCommon0
          CFI Function uartRxCB
        CODE
//  447 {
        FUNCALL uartRxCB, HalUARTRead
        LOCFRAME ISTACK, 0, STACK
        LOCFRAME PSTACK, 0, STACK
        LOCFRAME XSTACK, 145, STACK
        LOCFRAME IOVERLAY, 0, STATIC
        LOCFRAME DOVERLAY, 0, STATIC
        ARGFRAME ISTACK, 0, STACK
        ARGFRAME PSTACK, 0, STACK
        ARGFRAME XSTACK, 145, STACK
        ARGFRAME IOVERLAY, 0, STATIC
        ARGFRAME DOVERLAY, 0, STATIC
        FUNCALL uartRxCB, HalUARTWrite
        LOCFRAME ISTACK, 0, STACK
        LOCFRAME PSTACK, 0, STACK
        LOCFRAME XSTACK, 145, STACK
        LOCFRAME IOVERLAY, 0, STATIC
        LOCFRAME DOVERLAY, 0, STATIC
        ARGFRAME ISTACK, 0, STACK
        ARGFRAME PSTACK, 0, STACK
        ARGFRAME XSTACK, 145, STACK
        ARGFRAME IOVERLAY, 0, STATIC
        ARGFRAME DOVERLAY, 0, STATIC
        REQUIRE ?V0
        REQUIRE ?V1
        MOV     A,#-0xa
        LCALL   ?BANKED_ENTER_XDATA
          CFI DPH0 load(1, XDATA, add(CFA_XSP16, literal(-1)))
          CFI DPL0 load(1, XDATA, add(CFA_XSP16, literal(-2)))
          CFI ?BRET_EXT load(1, XDATA, add(CFA_XSP16, literal(-3)))
          CFI ?RET_HIGH load(1, XDATA, add(CFA_XSP16, literal(-4)))
          CFI ?RET_LOW load(1, XDATA, add(CFA_XSP16, literal(-5)))
          CFI R7 load(1, XDATA, add(CFA_XSP16, literal(-6)))
          CFI V1 load(1, XDATA, add(CFA_XSP16, literal(-7)))
          CFI V0 load(1, XDATA, add(CFA_XSP16, literal(-8)))
          CFI VB load(1, XDATA, add(CFA_XSP16, literal(-9)))
          CFI R6 load(1, XDATA, add(CFA_XSP16, literal(-10)))
          CFI CFA_SP SP+0
          CFI CFA_XSP16 add(XSP16, 10)
        ; Saved register size: 10
        ; Auto size: 135
        MOV     A,#0x79
        LCALL   ?ALLOC_XSTACK8
          CFI CFA_XSP16 add(XSP16, 145)
        MOV     A,R2
        MOV     R6,A
//  448   (void)port;
//  449 
//  450   uint8 pBuf[RX_BUF_LEN];
//  451   uint16 cmd;
//  452   uint16 len;
//  453 
//  454   if ( event != HAL_UART_TX_EMPTY )
        MOV     A,#0x10
        XRL     A,R6
        JNZ     $+5
        LJMP    ??uartRxCB_0 & 0xFFFF
//  455   {
//  456     // Read from UART
//  457     len = HalUARTRead( HAL_UART_PORT_0, pBuf, RX_BUF_LEN );
//  458 
//  459     if ( len > 0 )
        ; Setup parameters for call to function HalUARTRead
        MOV     R4,#-0x80
        MOV     R5,#0x0
        MOV     A,#0x7
        LCALL   ?XSTACK_DISP101_8
        MOV     R1,#0x0
        LCALL   `??HalUARTRead::?relay`; Banked call to: HalUARTRead
        MOV     ?V1,R3
        MOV     A,R2
        ORL     A,?V1
        JZ      ??uartRxCB_0
//  460     {
//  461       cmd = BUILD_UINT16(pBuf[SYS_PING_CMD_OFFSET + 1], pBuf[SYS_PING_CMD_OFFSET]);
//  462 
//  463       if( (pBuf[FRAME_SOF_OFFSET] == CPT_SOP) && (cmd == SYS_PING_REQUEST) )
        MOV     A,#0x7
        LCALL   ?XSTACK_DISP0_8
        MOVX    A,@DPTR
        XRL     A,#0xfe
        JNZ     ??uartRxCB_0
        MOV     A,#0x9
        LCALL   ?XSTACK_DISP0_8
        MOVX    A,@DPTR
        MOV     R2,A
        MOV     A,#0x8
        LCALL   ?XSTACK_DISP0_8
        MOVX    A,@DPTR
        MOV     R1,A
        MOV     A,R2
        MOV     R0,A
        MOV     A,#0x21
        XRL     A,R0
        ORL     A,R1
        JNZ     ??uartRxCB_0
//  464       {
//  465         sysPingReqRcvd();
        MOV     DPL,?XSP + 0
        MOV     DPH,?XSP + 1
        MOV     A,#-0x2
        MOVX    @DPTR,A
        MOV     A,#0x1
        LCALL   ?XSTACK_DISP0_8
        MOV     A,#0x2
        MOVX    @DPTR,A
        LCALL   ?XSTACK_DISP0_8
        MOV     A,#0x61
        MOVX    @DPTR,A
        MOV     A,#0x3
        LCALL   ?XSTACK_DISP0_8
        MOV     A,#0x1
        MOVX    @DPTR,A
        MOV     A,#0x4
        LCALL   ?XSTACK_DISP0_8
        MOV     A,#0x41
        MOVX    @DPTR,A
        MOV     A,#0x5
        LCALL   ?XSTACK_DISP0_8
        CLR     A
        MOVX    @DPTR,A
        INC     A
        LCALL   ?XSTACK_DISP0_8
        MOV     R0,#0x0
        MOV     R1,#0x5
??uartRxCB_1:
        MOVX    A,@DPTR
        XCH     A,R0
        XRL     A,R0
        MOV     R0,A
        INC     DPTR
        DJNZ    R1,??uartRxCB_1
        MOV     A,#0x6
        LCALL   ?XSTACK_DISP0_8
        MOV     A,R0
        MOVX    @DPTR,A
        ; Setup parameters for call to function HalUARTWrite
        MOV     R4,#0x7
        MOV     R5,#0x0
        MOV     R2,?XSP + 0
        MOV     R3,?XSP + 1
        MOV     R1,#0x0
        LCALL   `??HalUARTWrite::?relay`; Banked call to: HalUARTWrite
//  466       }
//  467     }
//  468   }
//  469 }
??uartRxCB_0:
        MOV     A,#-0x79
          CFI EndBlock cfiBlock8
        REQUIRE ?Subroutine0
        ; // Fall through to label ?Subroutine0

        RSEG BANKED_CODE:CODE:NOROOT(0)
?Subroutine0:
          CFI Block cfiBlock9 Using cfiCommon0
          CFI NoFunction
          CFI CFA_SP SP+0
          CFI CFA_XSP16 add(XSP16, 145)
          CFI VB load(1, XDATA, add(CFA_XSP16, literal(-9)))
          CFI DPL0 load(1, XDATA, add(CFA_XSP16, literal(-2)))
          CFI DPH0 load(1, XDATA, add(CFA_XSP16, literal(-1)))
          CFI R6 load(1, XDATA, add(CFA_XSP16, literal(-10)))
          CFI R7 load(1, XDATA, add(CFA_XSP16, literal(-6)))
          CFI V0 load(1, XDATA, add(CFA_XSP16, literal(-8)))
          CFI V1 load(1, XDATA, add(CFA_XSP16, literal(-7)))
          CFI ?BRET_EXT load(1, XDATA, add(CFA_XSP16, literal(-3)))
          CFI ?RET_HIGH load(1, XDATA, add(CFA_XSP16, literal(-4)))
          CFI ?RET_LOW load(1, XDATA, add(CFA_XSP16, literal(-5)))
          CFI Invalid
        LCALL   ?DEALLOC_XSTACK8
          CFI CFA_XSP16 add(XSP16, 10)
          CFI Valid
        MOV     R7,#0x2
        LJMP    ?BANKED_LEAVE_XDATA
          CFI CFA_SP SP+-3
          CFI CFA_XSP16 XSP16+0
          CFI VB SameValue
          CFI DPL0 SameValue
          CFI DPH0 SameValue
          CFI R6 SameValue
          CFI R7 SameValue
          CFI V0 SameValue
          CFI V1 SameValue
          CFI ?BRET_EXT Frame(CFA_SP, 3)
          CFI ?RET_HIGH Frame(CFA_SP, 2)
          CFI ?RET_LOW Frame(CFA_SP, 1)
          CFI EndBlock cfiBlock9
//  470 
//  471 /******************************************************************************
//  472  * @fn          sysPingReqRcvd
//  473  *
//  474  * @brief       Ping request received
//  475  *
//  476  * @param       none
//  477  *
//  478  * @return      none
//  479  */
//  480 static void sysPingReqRcvd(void)
//  481 {
//  482    sysPingRsp();
//  483 }
//  484 
//  485 /******************************************************************************
//  486  * @fn          sysPingRsp
//  487  *
//  488  * @brief       Build and send Ping response
//  489  *
//  490  * @param       none
//  491  *
//  492  * @return      none
//  493  */
//  494 static void sysPingRsp(void)
//  495 {
//  496   uint8 pBuf[SYS_PING_RSP_LENGTH];
//  497 
//  498   // Start of Frame Delimiter
//  499   pBuf[FRAME_SOF_OFFSET] = CPT_SOP;
//  500 
//  501   // Length
//  502   pBuf[FRAME_LENGTH_OFFSET] = 2;
//  503 
//  504   // Command type
//  505   pBuf[FRAME_CMD0_OFFSET] = LO_UINT16(SYS_PING_RESPONSE);
//  506   pBuf[FRAME_CMD1_OFFSET] = HI_UINT16(SYS_PING_RESPONSE);
//  507 
//  508   // Stack profile
//  509   pBuf[FRAME_DATA_OFFSET] = LO_UINT16(STACK_PROFILE);
//  510   pBuf[FRAME_DATA_OFFSET + 1] = HI_UINT16(STACK_PROFILE);
//  511 
//  512   // Frame Check Sequence
//  513   pBuf[SYS_PING_RSP_LENGTH - 1] = calcFCS(&pBuf[FRAME_LENGTH_OFFSET], (SYS_PING_RSP_LENGTH - 2));
//  514 
//  515   // Write frame to UART
//  516   HalUARTWrite(HAL_UART_PORT_0,pBuf, SYS_PING_RSP_LENGTH);
//  517 }
//  518 
//  519 /******************************************************************************
//  520  * @fn          calcFCS
//  521  *
//  522  * @brief       This function calculates the FCS checksum for the serial message
//  523  *
//  524  * @param       pBuf - Pointer to the end of a buffer to calculate the FCS.
//  525  *              len - Length of the pBuf.
//  526  *
//  527  * @return      The calculated FCS.
//  528  ******************************************************************************
//  529  */
//  530 static uint8 calcFCS(uint8 *pBuf, uint8 len)
//  531 {
//  532   uint8 rtrn = 0;
//  533 
//  534   while ( len-- )
//  535   {
//  536     rtrn ^= *pBuf++;
//  537   }
//  538 
//  539   return rtrn;
//  540 }
//  541 
//  542 /******************************************************************************
//  543  * @fn          sendCommand
//  544  *
//  545  * @brief       Sends a command message via Zigbee
//  546  *
//  547  * @param       command - uint8 containing the command bit
//  548  *
//  549  * @return      none
//  550  */

        RSEG BANKED_CODE:CODE:NOROOT(0)
//  551 void sendCommand ( uint8 command )
sendCommand:
          CFI Block cfiBlock10 Using cfiCommon0
          CFI Function sendCommand
        CODE
//  552 {
        FUNCALL sendCommand, HalLedSet
        LOCFRAME ISTACK, 0, STACK
        LOCFRAME PSTACK, 0, STACK
        LOCFRAME XSTACK, 11, STACK
        LOCFRAME IOVERLAY, 0, STATIC
        LOCFRAME DOVERLAY, 0, STATIC
        ARGFRAME ISTACK, 0, STACK
        ARGFRAME PSTACK, 0, STACK
        ARGFRAME XSTACK, 11, STACK
        ARGFRAME IOVERLAY, 0, STATIC
        ARGFRAME DOVERLAY, 0, STATIC
        FUNCALL sendCommand, zb_SendDataRequest
        LOCFRAME ISTACK, 0, STACK
        LOCFRAME PSTACK, 0, STACK
        LOCFRAME XSTACK, 16, STACK
        LOCFRAME IOVERLAY, 0, STATIC
        LOCFRAME DOVERLAY, 0, STATIC
        ARGFRAME ISTACK, 0, STACK
        ARGFRAME PSTACK, 0, STACK
        ARGFRAME XSTACK, 16, STACK
        ARGFRAME IOVERLAY, 0, STATIC
        ARGFRAME DOVERLAY, 0, STATIC
        FUNCALL sendCommand, HalLedSet
        LOCFRAME ISTACK, 0, STACK
        LOCFRAME PSTACK, 0, STACK
        LOCFRAME XSTACK, 11, STACK
        LOCFRAME IOVERLAY, 0, STATIC
        LOCFRAME DOVERLAY, 0, STATIC
        ARGFRAME ISTACK, 0, STACK
        ARGFRAME PSTACK, 0, STACK
        ARGFRAME XSTACK, 11, STACK
        ARGFRAME IOVERLAY, 0, STATIC
        ARGFRAME DOVERLAY, 0, STATIC
        REQUIRE ?V0
        REQUIRE ?V1
        MOV     A,#-0xa
        LCALL   ?BANKED_ENTER_XDATA
          CFI DPH0 load(1, XDATA, add(CFA_XSP16, literal(-1)))
          CFI DPL0 load(1, XDATA, add(CFA_XSP16, literal(-2)))
          CFI ?BRET_EXT load(1, XDATA, add(CFA_XSP16, literal(-3)))
          CFI ?RET_HIGH load(1, XDATA, add(CFA_XSP16, literal(-4)))
          CFI ?RET_LOW load(1, XDATA, add(CFA_XSP16, literal(-5)))
          CFI R7 load(1, XDATA, add(CFA_XSP16, literal(-6)))
          CFI V1 load(1, XDATA, add(CFA_XSP16, literal(-7)))
          CFI V0 load(1, XDATA, add(CFA_XSP16, literal(-8)))
          CFI VB load(1, XDATA, add(CFA_XSP16, literal(-9)))
          CFI R6 load(1, XDATA, add(CFA_XSP16, literal(-10)))
          CFI CFA_SP SP+0
          CFI CFA_XSP16 add(XSP16, 10)
        ; Saved register size: 10
        ; Auto size: 1
        MOV     A,#-0x1
        LCALL   ?ALLOC_XSTACK8
          CFI CFA_XSP16 add(XSP16, 11)
        MOV     A,R1
        MOV     R6,A
//  553   HalLedSet( HAL_LED_1, HAL_LED_MODE_OFF );
        ; Setup parameters for call to function HalLedSet
        MOV     R2,#0x0
        MOV     R1,#0x1
        LCALL   `??HalLedSet::?relay`; Banked call to: HalLedSet
//  554   uint8 pData[1];
//  555   static uint8 reportNr = 0;
//  556   uint8 txOptions;
//  557 
//  558   pData[0] = command;
        MOV     A,R6
        MOV     DPL,?XSP + 0
        MOV     DPH,?XSP + 1
        MOVX    @DPTR,A
//  559   if ( ++reportNr < ACK_REQ_INTERVAL && reportFailureNr == 0 )
        MOV     DPTR,#??reportNr
        MOVX    A,@DPTR
        INC     A
        MOVX    @DPTR,A
        CLR     C
        SUBB    A,#0x5
        JNC     ??sendCommand_0
        MOV     DPTR,#reportFailureNr
        MOVX    A,@DPTR
        JNZ     ??sendCommand_0
//  560   {
//  561     txOptions = AF_TX_OPTIONS_NONE;
        MOV     R1,#0x0
        SJMP    ??sendCommand_1
//  562   }
//  563   else
//  564   {
//  565     txOptions = AF_MSG_ACK_REQUEST;
??sendCommand_0:
        MOV     R1,#0x10
//  566     reportNr = 0;
        MOV     DPTR,#??reportNr
        CLR     A
        MOVX    @DPTR,A
//  567   }
//  568   zb_SendDataRequest( 0xFFFF, COORD_REPORT_CMD_ID, 1, pData, 0, txOptions, 0 );
??sendCommand_1:
        ; Setup parameters for call to function zb_SendDataRequest
        MOV     ?V0,#0x0
        MOV     R0,#?V0
        LCALL   ?PUSH_XSTACK_I_ONE
          CFI CFA_XSP16 add(XSP16, 12)
        MOV     A,R1
        MOV     ?V0,A
        MOV     R0,#?V0
        LCALL   ?PUSH_XSTACK_I_ONE
          CFI CFA_XSP16 add(XSP16, 13)
        MOV     ?V0,#0x0
        MOV     R0,#?V0
        LCALL   ?PUSH_XSTACK_I_ONE
          CFI CFA_XSP16 add(XSP16, 14)
        MOV     A,#0x3
        LCALL   ?XSTACK_DISP100_8
        MOV     ?V0,R0
        MOV     ?V1,R1
        MOV     R0,#?V0
        LCALL   ?PUSH_XSTACK_I_TWO
          CFI CFA_XSP16 add(XSP16, 16)
        MOV     R1,#0x1
        MOV     R4,#0x4
        MOV     R5,#0x0
        MOV     R2,#-0x1
        MOV     R3,#-0x1
        LCALL   `??zb_SendDataRequest::?relay`; Banked call to: zb_SendDataRequest
        MOV     A,#0x5
        LCALL   ?DEALLOC_XSTACK8
          CFI CFA_XSP16 add(XSP16, 11)
//  569   HalLedSet( HAL_LED_1, HAL_LED_MODE_ON );
        ; Setup parameters for call to function HalLedSet
        MOV     R2,#0x1
        MOV     R1,#0x1
        LCALL   `??HalLedSet::?relay`; Banked call to: HalLedSet
//  570 }
        MOV     A,#0x1
        LJMP    ?Subroutine0 & 0xFFFF
          CFI EndBlock cfiBlock10

        RSEG XDATA_Z:XDATA:NOROOT(0)
        DATA8
??reportNr:
        DS 1
        REQUIRE __INIT_XDATA_Z

        RSEG XDATA_ID:CODE:NOROOT(0)
`?<Initializer for myStartRetryDelay>`:
        DATA8
        DB 10

        RSEG XDATA_ID:CODE:NOROOT(0)
`?<Initializer for doorOpen>`:
        DATA8
        DB 255

        RSEG XDATA_ROM_C:CONST:REORDER:NOROOT(0)
        DATA32
__Constant_3e8:
        DD 1000

        RSEG BANK_RELAYS:CODE:REORDER:NOROOT(0)
`??zb_HandleOsalEvent::?relay`:
        CODE
        LCALL   ?BDISPATCH
        DATA24
        DC24    zb_HandleOsalEvent

        RSEG BANK_RELAYS:CODE:REORDER:NOROOT(0)
`??zb_HandleKeys::?relay`:
        CODE
        LCALL   ?BDISPATCH
        DATA24
        DC24    zb_HandleKeys

        RSEG BANK_RELAYS:CODE:REORDER:NOROOT(0)
`??zb_StartConfirm::?relay`:
        CODE
        LCALL   ?BDISPATCH
        DATA24
        DC24    zb_StartConfirm

        RSEG BANK_RELAYS:CODE:REORDER:NOROOT(0)
`??zb_SendDataConfirm::?relay`:
        CODE
        LCALL   ?BDISPATCH
        DATA24
        DC24    zb_SendDataConfirm

        RSEG BANK_RELAYS:CODE:REORDER:NOROOT(0)
`??zb_BindConfirm::?relay`:
        CODE
        LCALL   ?BDISPATCH
        DATA24
        DC24    zb_BindConfirm

        RSEG BANK_RELAYS:CODE:REORDER:NOROOT(0)
`??zb_AllowBindConfirm::?relay`:
        CODE
        LCALL   ?BDISPATCH
        DATA24
        DC24    zb_AllowBindConfirm

        RSEG BANK_RELAYS:CODE:REORDER:NOROOT(0)
`??zb_FindDeviceConfirm::?relay`:
        CODE
        LCALL   ?BDISPATCH
        DATA24
        DC24    zb_FindDeviceConfirm

        RSEG BANK_RELAYS:CODE:REORDER:NOROOT(0)
`??zb_ReceiveDataIndication::?relay`:
        CODE
        LCALL   ?BDISPATCH
        DATA24
        DC24    zb_ReceiveDataIndication

        RSEG BANK_RELAYS:CODE:REORDER:NOROOT(0)
`??uartRxCB::?relay`:
        CODE
        LCALL   ?BDISPATCH
        DATA24
        DC24    uartRxCB

        RSEG BANK_RELAYS:CODE:REORDER:NOROOT(0)
`??sendCommand::?relay`:
        CODE
        LCALL   ?BDISPATCH
        DATA24
        DC24    sendCommand

        END
// 
// 691 bytes in segment BANKED_CODE
//  60 bytes in segment BANK_RELAYS
//   5 bytes in segment SFR_AN
//   2 bytes in segment XDATA_I
//   2 bytes in segment XDATA_ID
//  20 bytes in segment XDATA_ROM_C
//   7 bytes in segment XDATA_Z
// 
// 753 bytes of CODE  memory
//  16 bytes of CONST memory (+ 4 bytes shared)
//   0 bytes of DATA  memory (+ 5 bytes shared)
//   9 bytes of XDATA memory
//
//Errors: none
//Warnings: 1
