///////////////////////////////////////////////////////////////////////////////
//
// IAR C/C++ Compiler V9.20.1.2476 for 8051               26/Mar/2016  18:15:32
// Copyright 2004-2015 IAR Systems AB.
// Standalone license - IAR Embedded Workbench for 8051
//
//    Core               =  plain
//    Code model         =  banked
//    Data model         =  large
//    Calling convention =  xdata reentrant
//    Constant location  =  data_rom
//    Dptr setup         =  1,16
//                          
//    Source file        =  
//        C:\Users\DLeijen\Documents\WSN-Lab\Z-Stack Mesh
//        1.0.0\Projects\zstack\Samples\DemoApp\Source\DemoRouter.c
//    Command line       =  
//        -f "C:\Users\DLeijen\Documents\WSN-Lab\Z-Stack Mesh
//        1.0.0\Projects\zstack\Samples\DemoApp\CC2530DB\..\..\..\Tools\CC2530DB\f8wRouter.cfg"
//        (-DCPU32MHZ -DROOT=__near_func -DMAC_CFG_APP_PENDING_QUEUE=TRUE
//        -DMAC_CFG_TX_DATA_MAX=5 -DMAC_CFG_TX_MAX=8 -DMAC_CFG_RX_MAX=5
//        -DRTR_NWK) -f "C:\Users\DLeijen\Documents\WSN-Lab\Z-Stack Mesh
//        1.0.0\Projects\zstack\Samples\DemoApp\CC2530DB\..\..\..\Tools\CC2530DB\f8wConfig.cfg"
//        (-DZIGBEEPRO -DSECURE=1 -DZG_SECURE_DYNAMIC=0 -DREFLECTOR
//        -DDEFAULT_CHANLIST=0x02000000 -DDEFAULT_CHANLIST=0x00000800
//        -DZDAPP_CONFIG_PAN_ID=0x1AAD -DNWK_START_DELAY=100
//        -DEXTENDED_JOINING_RANDOM_MASK=0x007F -DBEACON_REQUEST_DELAY=100
//        -DBEACON_REQ_DELAY_MASK=0x00FF -DLINK_STATUS_JITTER_MASK=0x007F
//        -DROUTE_EXPIRY_TIME=30 -DAPSC_ACK_WAIT_DURATION_POLLED=3000
//        -DNWK_INDIRECT_MSG_TIMEOUT=7 -DMAX_RREQ_ENTRIES=8
//        -DAPSC_MAX_FRAME_RETRIES=3 -DNWK_MAX_DATA_RETRIES=2
//        -DMAX_POLL_FAILURE_RETRIES=2 -DMAX_BCAST=9 -DAPS_MAX_GROUPS=16
//        -DMAX_RTG_ENTRIES=40 -DNWK_MAX_BINDING_ENTRIES=4
//        -DMAX_BINDING_CLUSTER_IDS=4 "-DDEFAULT_KEY={0x01, 0x03, 0x05, 0x07,
//        0x09, 0x0B, 0x0D, 0x0F, 0x00, 0x02, 0x04, 0x06, 0x08, 0x0A, 0x0C,
//        0x0D}" -DMAC_MAX_FRAME_SIZE=116 -DZDNWKMGR_MIN_TRANSMISSIONS=20
//        "-DCONST=const __code" -DGENERIC=__generic -DRFD_RCVC_ALWAYS_ON=FALSE
//        -DPOLL_RATE=1000 -DQUEUED_POLL_RATE=100 -DRESPONSE_POLL_RATE=100)
//        -DREJOIN_POLL_RATE=440 "C:\Users\DLeijen\Documents\WSN-Lab\Z-Stack
//        Mesh 1.0.0\Projects\zstack\Samples\DemoApp\Source\DemoRouter.c" -D
//        HOLD_AUTO_START -D BUILD_ALL_DEVICES -D NV_INIT -D
//        DEVICE_LOGICAL_TYPE=ZG_DEVICETYPE_ROUTER -lC
//        "C:\Users\DLeijen\Documents\WSN-Lab\Z-Stack Mesh
//        1.0.0\Projects\zstack\Samples\DemoApp\CC2530DB\RouterEB\List\" -lA
//        "C:\Users\DLeijen\Documents\WSN-Lab\Z-Stack Mesh
//        1.0.0\Projects\zstack\Samples\DemoApp\CC2530DB\RouterEB\List\"
//        --diag_suppress Pe001,Pa010,Pe1665 -o
//        "C:\Users\DLeijen\Documents\WSN-Lab\Z-Stack Mesh
//        1.0.0\Projects\zstack\Samples\DemoApp\CC2530DB\RouterEB\Obj\" -e
//        --no_cse --no_unroll --no_inline --no_code_motion --no_tbaa --debug
//        --core=plain --dptr=16,1 --data_model=large --code_model=banked
//        --calling_convention=xdata_reentrant --place_constants=data_rom
//        --nr_virtual_regs 16 -I "C:\Users\DLeijen\Documents\WSN-Lab\Z-Stack
//        Mesh 1.0.0\Projects\zstack\Samples\DemoApp\CC2530DB\" -I
//        "C:\Users\DLeijen\Documents\WSN-Lab\Z-Stack Mesh
//        1.0.0\Projects\zstack\Samples\DemoApp\CC2530DB\..\Source\" -I
//        "C:\Users\DLeijen\Documents\WSN-Lab\Z-Stack Mesh
//        1.0.0\Projects\zstack\Samples\DemoApp\CC2530DB\..\..\..\ZMain\TI2530DB\"
//        -I "C:\Users\DLeijen\Documents\WSN-Lab\Z-Stack Mesh
//        1.0.0\Projects\zstack\Samples\DemoApp\CC2530DB\..\..\..\..\..\Components\hal\include\"
//        -I "C:\Users\DLeijen\Documents\WSN-Lab\Z-Stack Mesh
//        1.0.0\Projects\zstack\Samples\DemoApp\CC2530DB\..\..\..\..\..\Components\hal\target\CC2530EB\"
//        -I "C:\Users\DLeijen\Documents\WSN-Lab\Z-Stack Mesh
//        1.0.0\Projects\zstack\Samples\DemoApp\CC2530DB\..\..\..\..\..\Components\mac\include\"
//        -I "C:\Users\DLeijen\Documents\WSN-Lab\Z-Stack Mesh
//        1.0.0\Projects\zstack\Samples\DemoApp\CC2530DB\..\..\..\..\..\Components\mac\high_level\"
//        -I "C:\Users\DLeijen\Documents\WSN-Lab\Z-Stack Mesh
//        1.0.0\Projects\zstack\Samples\DemoApp\CC2530DB\..\..\..\..\..\Components\mac\low_level\srf04\"
//        -I "C:\Users\DLeijen\Documents\WSN-Lab\Z-Stack Mesh
//        1.0.0\Projects\zstack\Samples\DemoApp\CC2530DB\..\..\..\..\..\Components\mac\low_level\srf04\single_chip\"
//        -I "C:\Users\DLeijen\Documents\WSN-Lab\Z-Stack Mesh
//        1.0.0\Projects\zstack\Samples\DemoApp\CC2530DB\..\..\..\..\..\Components\mt\"
//        -I "C:\Users\DLeijen\Documents\WSN-Lab\Z-Stack Mesh
//        1.0.0\Projects\zstack\Samples\DemoApp\CC2530DB\..\..\..\..\..\Components\osal\include\"
//        -I "C:\Users\DLeijen\Documents\WSN-Lab\Z-Stack Mesh
//        1.0.0\Projects\zstack\Samples\DemoApp\CC2530DB\..\..\..\..\..\Components\services\saddr\"
//        -I "C:\Users\DLeijen\Documents\WSN-Lab\Z-Stack Mesh
//        1.0.0\Projects\zstack\Samples\DemoApp\CC2530DB\..\..\..\..\..\Components\services\sdata\"
//        -I "C:\Users\DLeijen\Documents\WSN-Lab\Z-Stack Mesh
//        1.0.0\Projects\zstack\Samples\DemoApp\CC2530DB\..\..\..\..\..\Components\stack\af\"
//        -I "C:\Users\DLeijen\Documents\WSN-Lab\Z-Stack Mesh
//        1.0.0\Projects\zstack\Samples\DemoApp\CC2530DB\..\..\..\..\..\Components\stack\nwk\"
//        -I "C:\Users\DLeijen\Documents\WSN-Lab\Z-Stack Mesh
//        1.0.0\Projects\zstack\Samples\DemoApp\CC2530DB\..\..\..\..\..\Components\stack\sapi\"
//        -I "C:\Users\DLeijen\Documents\WSN-Lab\Z-Stack Mesh
//        1.0.0\Projects\zstack\Samples\DemoApp\CC2530DB\..\..\..\..\..\Components\stack\sec\"
//        -I "C:\Users\DLeijen\Documents\WSN-Lab\Z-Stack Mesh
//        1.0.0\Projects\zstack\Samples\DemoApp\CC2530DB\..\..\..\..\..\Components\stack\sys\"
//        -I "C:\Users\DLeijen\Documents\WSN-Lab\Z-Stack Mesh
//        1.0.0\Projects\zstack\Samples\DemoApp\CC2530DB\..\..\..\..\..\Components\stack\zdo\"
//        -I "C:\Users\DLeijen\Documents\WSN-Lab\Z-Stack Mesh
//        1.0.0\Projects\zstack\Samples\DemoApp\CC2530DB\..\..\..\..\..\Components\zmac\"
//        -I "C:\Users\DLeijen\Documents\WSN-Lab\Z-Stack Mesh
//        1.0.0\Projects\zstack\Samples\DemoApp\CC2530DB\..\..\..\..\..\Components\zmac\f8w\"
//        -On --require_prototypes
//    List file          =  
//        C:\Users\DLeijen\Documents\WSN-Lab\Z-Stack Mesh
//        1.0.0\Projects\zstack\Samples\DemoApp\CC2530DB\RouterEB\List\DemoRouter.s51
//
///////////////////////////////////////////////////////////////////////////////

        NAME DemoRouter

        RTMODEL "__SystemLibrary", "CLib"
        RTMODEL "__calling_convention", "xdata_reentrant"
        RTMODEL "__code_model", "banked"
        RTMODEL "__core", "plain"
        RTMODEL "__data_model", "large"
        RTMODEL "__dptr_size", "16"
        RTMODEL "__extended_stack", "disabled"
        RTMODEL "__location_for_constants", "data"
        RTMODEL "__number_of_dptrs", "1"
        RTMODEL "__rt_version", "1"

        RSEG DOVERLAY:DATA:NOROOT(0)
        RSEG IOVERLAY:IDATA:NOROOT(0)
        RSEG ISTACK:IDATA:NOROOT(0)
        RSEG PSTACK:XDATA:NOROOT(0)
        RSEG XSTACK:XDATA:NOROOT(0)

        EXTERN ?V0
        EXTERN ?V1
        EXTERN ?V2
        EXTERN ?V3
        EXTERN ?V4
        EXTERN ?V5
        EXTERN ?ALLOC_XSTACK8
        EXTERN ?BANKED_ENTER_XDATA
        EXTERN ?BANKED_LEAVE_XDATA
        EXTERN ?BDISPATCH
        EXTERN ?BRET
        EXTERN ?DEALLOC_XSTACK8
        EXTERN ?PUSH_XSTACK_I_FOUR
        EXTERN ?PUSH_XSTACK_I_ONE
        EXTERN ?PUSH_XSTACK_I_TWO
        EXTERN ?XSP
        EXTERN ?XSTACK_DISP0_8
        EXTERN ?XSTACK_DISP100_8
        EXTERN __INIT_XDATA_I
        EXTERN __INIT_XDATA_Z

        PUBLIC `??sendCommand::?relay`
        FUNCTION `??sendCommand::?relay`,0203H
        PUBLIC `??uartRxCB::?relay`
        FUNCTION `??uartRxCB::?relay`,0203H
        PUBLIC `??zb_AllowBindConfirm::?relay`
        FUNCTION `??zb_AllowBindConfirm::?relay`,0203H
        PUBLIC `??zb_BindConfirm::?relay`
        FUNCTION `??zb_BindConfirm::?relay`,0203H
        PUBLIC `??zb_FindDeviceConfirm::?relay`
        FUNCTION `??zb_FindDeviceConfirm::?relay`,0203H
        PUBLIC `??zb_HandleKeys::?relay`
        FUNCTION `??zb_HandleKeys::?relay`,0203H
        PUBLIC `??zb_HandleOsalEvent::?relay`
        FUNCTION `??zb_HandleOsalEvent::?relay`,0203H
        PUBLIC `??zb_ReceiveDataIndication::?relay`
        FUNCTION `??zb_ReceiveDataIndication::?relay`,0203H
        PUBLIC `??zb_SendDataConfirm::?relay`
        FUNCTION `??zb_SendDataConfirm::?relay`,0203H
        PUBLIC `??zb_StartConfirm::?relay`
        FUNCTION `??zb_StartConfirm::?relay`,0203H
        PUBWEAK P1DIR
        PUBWEAK _A_P1
        PUBLIC sendCommand
        FUNCTION sendCommand,0a1203H
        ARGFRAME XSTACK, 14, STACK
        ARGFRAME IOVERLAY, 0, STATIC
        ARGFRAME DOVERLAY, 0, STATIC
        LOCFRAME ISTACK, 1, STACK
        LOCFRAME XSTACK, 16, STACK
        PUBLIC uartRxCB
        FUNCTION uartRxCB,0203H
        ARGFRAME XSTACK, 0, STACK
        PUBLIC zb_AllowBindConfirm
        FUNCTION zb_AllowBindConfirm,0203H
        ARGFRAME XSTACK, 0, STACK
        PUBLIC zb_BindConfirm
        FUNCTION zb_BindConfirm,0a1203H
        ARGFRAME XSTACK, 0, STACK
        LOCFRAME XSTACK, 17, STACK
        PUBLIC zb_FindDeviceConfirm
        FUNCTION zb_FindDeviceConfirm,0203H
        ARGFRAME XSTACK, 0, STACK
        PUBLIC zb_HandleKeys
        FUNCTION zb_HandleKeys,021203H
        ARGFRAME XSTACK, 0, STACK
        LOCFRAME XSTACK, 9, STACK
        PUBLIC zb_HandleOsalEvent
        FUNCTION zb_HandleOsalEvent,0a1203H
        ARGFRAME XSTACK, 0, STACK
        LOCFRAME XSTACK, 16, STACK
        PUBLIC zb_InCmdList
        PUBLIC zb_OutCmdList
        PUBLIC zb_ReceiveDataIndication
        FUNCTION zb_ReceiveDataIndication,0a1203H
        ARGFRAME XSTACK, 4, STACK
        LOCFRAME XSTACK, 14, STACK
        PUBLIC zb_SendDataConfirm
        FUNCTION zb_SendDataConfirm,0a1203H
        ARGFRAME XSTACK, 0, STACK
        LOCFRAME XSTACK, 16, STACK
        PUBLIC zb_SimpleDesc
        PUBLIC zb_StartConfirm
        FUNCTION zb_StartConfirm,0a1203H
        ARGFRAME XSTACK, 0, STACK
        LOCFRAME XSTACK, 16, STACK
        
          CFI Names cfiNames0
          CFI StackFrame CFA_SP SP IDATA
          CFI StackFrame CFA_PSP16 PSP16 XDATA
          CFI StackFrame CFA_XSP16 XSP16 XDATA
          CFI StaticOverlayFrame CFA_IOVERLAY IOVERLAY
          CFI StaticOverlayFrame CFA_DOVERLAY DOVERLAY
          CFI Resource `PSW.CY`:1, `B.BR0`:1, `B.BR1`:1, `B.BR2`:1, `B.BR3`:1
          CFI Resource `B.BR4`:1, `B.BR5`:1, `B.BR6`:1, `B.BR7`:1, `VB.BR8`:1
          CFI Resource `VB.BR9`:1, `VB.BR10`:1, `VB.BR11`:1, `VB.BR12`:1
          CFI Resource `VB.BR13`:1, `VB.BR14`:1, `VB.BR15`:1, VB:8, B:8, A:8
          CFI Resource PSW:8, DPL0:8, DPH0:8, R0:8, R1:8, R2:8, R3:8, R4:8, R5:8
          CFI Resource R6:8, R7:8, V0:8, V1:8, V2:8, V3:8, V4:8, V5:8, V6:8, V7:8
          CFI Resource V8:8, V9:8, V10:8, V11:8, V12:8, V13:8, V14:8, V15:8, SP:8
          CFI Resource PSPH:8, PSPL:8, PSP16:16, XSPH:8, XSPL:8, XSP16:16
          CFI VirtualResource ?RET:24
          CFI Resource ?BRET_EXT:8
          CFI VirtualResource ?RET_HIGH:8, ?RET_LOW:8
          CFI ResourceParts PSP16 PSPH, PSPL
          CFI ResourceParts XSP16 XSPH, XSPL
          CFI ResourceParts ?RET ?BRET_EXT, ?RET_HIGH, ?RET_LOW
          CFI EndNames cfiNames0
        
          CFI Common cfiCommon0 Using cfiNames0
          CFI CodeAlign 1
          CFI DataAlign -1
          CFI ReturnAddress ?RET CODE
          CFI CFA_DOVERLAY Used
          CFI CFA_IOVERLAY Used
          CFI CFA_SP SP+-3
          CFI CFA_PSP16 PSP16+0
          CFI CFA_XSP16 XSP16+0
          CFI `PSW.CY` SameValue
          CFI `B.BR0` SameValue
          CFI `B.BR1` SameValue
          CFI `B.BR2` SameValue
          CFI `B.BR3` SameValue
          CFI `B.BR4` SameValue
          CFI `B.BR5` SameValue
          CFI `B.BR6` SameValue
          CFI `B.BR7` SameValue
          CFI `VB.BR8` SameValue
          CFI `VB.BR9` SameValue
          CFI `VB.BR10` SameValue
          CFI `VB.BR11` SameValue
          CFI `VB.BR12` SameValue
          CFI `VB.BR13` SameValue
          CFI `VB.BR14` SameValue
          CFI `VB.BR15` SameValue
          CFI VB SameValue
          CFI B Undefined
          CFI A Undefined
          CFI PSW SameValue
          CFI DPL0 SameValue
          CFI DPH0 SameValue
          CFI R0 Undefined
          CFI R1 Undefined
          CFI R2 Undefined
          CFI R3 Undefined
          CFI R4 Undefined
          CFI R5 Undefined
          CFI R6 SameValue
          CFI R7 SameValue
          CFI V0 SameValue
          CFI V1 SameValue
          CFI V2 SameValue
          CFI V3 SameValue
          CFI V4 SameValue
          CFI V5 SameValue
          CFI V6 SameValue
          CFI V7 SameValue
          CFI V8 SameValue
          CFI V9 SameValue
          CFI V10 SameValue
          CFI V11 SameValue
          CFI V12 SameValue
          CFI V13 SameValue
          CFI V14 SameValue
          CFI V15 SameValue
          CFI PSPH Undefined
          CFI PSPL Undefined
          CFI XSPH Undefined
          CFI XSPL Undefined
          CFI ?RET Concat
          CFI ?BRET_EXT Frame(CFA_SP, 3)
          CFI ?RET_HIGH Frame(CFA_SP, 2)
          CFI ?RET_LOW Frame(CFA_SP, 1)
          CFI EndCommon cfiCommon0
        
HalLedBlink         SYMBOL "HalLedBlink"
`??HalLedBlink::?relay` SYMBOL "?relay", HalLedBlink
HalLedSet           SYMBOL "HalLedSet"
`??HalLedSet::?relay` SYMBOL "?relay", HalLedSet
osal_set_event      SYMBOL "osal_set_event"
`??osal_set_event::?relay` SYMBOL "?relay", osal_set_event
osal_start_timerEx  SYMBOL "osal_start_timerEx"
`??osal_start_timerEx::?relay` SYMBOL "?relay", osal_start_timerEx
osal_stop_timerEx   SYMBOL "osal_stop_timerEx"
`??osal_stop_timerEx::?relay` SYMBOL "?relay", osal_stop_timerEx
zb_AllowBind        SYMBOL "zb_AllowBind"
`??zb_AllowBind::?relay` SYMBOL "?relay", zb_AllowBind
zb_BindDevice       SYMBOL "zb_BindDevice"
`??zb_BindDevice::?relay` SYMBOL "?relay", zb_BindDevice
zb_GetDeviceInfo    SYMBOL "zb_GetDeviceInfo"
`??zb_GetDeviceInfo::?relay` SYMBOL "?relay", zb_GetDeviceInfo
zb_SendDataRequest  SYMBOL "zb_SendDataRequest"
`??zb_SendDataRequest::?relay` SYMBOL "?relay", zb_SendDataRequest
zb_StartRequest     SYMBOL "zb_StartRequest"
`??zb_StartRequest::?relay` SYMBOL "?relay", zb_StartRequest
zb_SystemReset      SYMBOL "zb_SystemReset"
`??zb_SystemReset::?relay` SYMBOL "?relay", zb_SystemReset
sendCommand         SYMBOL "sendCommand"
`??sendCommand::?relay` SYMBOL "?relay", sendCommand
uartRxCB            SYMBOL "uartRxCB"
`??uartRxCB::?relay` SYMBOL "?relay", uartRxCB
zb_AllowBindConfirm SYMBOL "zb_AllowBindConfirm"
`??zb_AllowBindConfirm::?relay` SYMBOL "?relay", zb_AllowBindConfirm
zb_BindConfirm      SYMBOL "zb_BindConfirm"
`??zb_BindConfirm::?relay` SYMBOL "?relay", zb_BindConfirm
zb_FindDeviceConfirm SYMBOL "zb_FindDeviceConfirm"
`??zb_FindDeviceConfirm::?relay` SYMBOL "?relay", zb_FindDeviceConfirm
zb_HandleKeys       SYMBOL "zb_HandleKeys"
`??zb_HandleKeys::?relay` SYMBOL "?relay", zb_HandleKeys
zb_HandleOsalEvent  SYMBOL "zb_HandleOsalEvent"
`??zb_HandleOsalEvent::?relay` SYMBOL "?relay", zb_HandleOsalEvent
zb_ReceiveDataIndication SYMBOL "zb_ReceiveDataIndication"
`??zb_ReceiveDataIndication::?relay` SYMBOL "?relay", zb_ReceiveDataIndication
zb_SendDataConfirm  SYMBOL "zb_SendDataConfirm"
`??zb_SendDataConfirm::?relay` SYMBOL "?relay", zb_SendDataConfirm
zb_StartConfirm     SYMBOL "zb_StartConfirm"
`??zb_StartConfirm::?relay` SYMBOL "?relay", zb_StartConfirm

        EXTERN `??HalLedBlink::?relay`
        FUNCTION `??HalLedBlink::?relay`,00H
        EXTERN `??HalLedSet::?relay`
        FUNCTION `??HalLedSet::?relay`,00H
        EXTERN `??osal_set_event::?relay`
        FUNCTION `??osal_set_event::?relay`,00H
        EXTERN `??osal_start_timerEx::?relay`
        FUNCTION `??osal_start_timerEx::?relay`,00H
        EXTERN `??osal_stop_timerEx::?relay`
        FUNCTION `??osal_stop_timerEx::?relay`,00H
        EXTERN `??zb_AllowBind::?relay`
        FUNCTION `??zb_AllowBind::?relay`,00H
        EXTERN `??zb_BindDevice::?relay`
        FUNCTION `??zb_BindDevice::?relay`,00H
        EXTERN `??zb_GetDeviceInfo::?relay`
        FUNCTION `??zb_GetDeviceInfo::?relay`,00H
        EXTERN `??zb_SendDataRequest::?relay`
        FUNCTION `??zb_SendDataRequest::?relay`,00H
        EXTERN `??zb_StartRequest::?relay`
        FUNCTION `??zb_StartRequest::?relay`,00H
        EXTERN `??zb_SystemReset::?relay`
        FUNCTION `??zb_SystemReset::?relay`,00H
        EXTERN HalLedBlink
        FUNCTION HalLedBlink,0202H
        ARGFRAME ISTACK, 0, STACK
        ARGFRAME PSTACK, 0, STACK
        ARGFRAME XSTACK, 12, STACK
        ARGFRAME IOVERLAY, 0, STATIC
        ARGFRAME DOVERLAY, 0, STATIC
        EXTERN HalLedSet
        FUNCTION HalLedSet,0202H
        ARGFRAME ISTACK, 0, STACK
        ARGFRAME PSTACK, 0, STACK
        ARGFRAME XSTACK, 13, STACK
        ARGFRAME IOVERLAY, 0, STATIC
        ARGFRAME DOVERLAY, 0, STATIC
        EXTERN osal_set_event
        FUNCTION osal_set_event,0202H
        ARGFRAME ISTACK, 0, STACK
        ARGFRAME PSTACK, 0, STACK
        ARGFRAME XSTACK, 13, STACK
        ARGFRAME IOVERLAY, 0, STATIC
        ARGFRAME DOVERLAY, 0, STATIC
        EXTERN osal_start_timerEx
        FUNCTION osal_start_timerEx,0202H
        ARGFRAME ISTACK, 0, STACK
        ARGFRAME PSTACK, 0, STACK
        ARGFRAME XSTACK, 17, STACK
        ARGFRAME IOVERLAY, 0, STATIC
        ARGFRAME DOVERLAY, 0, STATIC
        EXTERN osal_stop_timerEx
        FUNCTION osal_stop_timerEx,0202H
        ARGFRAME ISTACK, 0, STACK
        ARGFRAME PSTACK, 0, STACK
        ARGFRAME XSTACK, 12, STACK
        ARGFRAME IOVERLAY, 0, STATIC
        ARGFRAME DOVERLAY, 0, STATIC
        EXTERN sapi_TaskID
        EXTERN zb_AllowBind
        FUNCTION zb_AllowBind,0202H
        ARGFRAME ISTACK, 0, STACK
        ARGFRAME PSTACK, 0, STACK
        ARGFRAME XSTACK, 12, STACK
        ARGFRAME IOVERLAY, 0, STATIC
        ARGFRAME DOVERLAY, 0, STATIC
        EXTERN zb_BindDevice
        FUNCTION zb_BindDevice,0202H
        ARGFRAME ISTACK, 0, STACK
        ARGFRAME PSTACK, 0, STACK
        ARGFRAME XSTACK, 12, STACK
        ARGFRAME IOVERLAY, 0, STATIC
        ARGFRAME DOVERLAY, 0, STATIC
        EXTERN zb_GetDeviceInfo
        FUNCTION zb_GetDeviceInfo,0202H
        ARGFRAME ISTACK, 0, STACK
        ARGFRAME PSTACK, 0, STACK
        ARGFRAME XSTACK, 12, STACK
        ARGFRAME IOVERLAY, 0, STATIC
        ARGFRAME DOVERLAY, 0, STATIC
        EXTERN zb_SendDataRequest
        FUNCTION zb_SendDataRequest,0202H
        ARGFRAME ISTACK, 0, STACK
        ARGFRAME PSTACK, 0, STACK
        ARGFRAME XSTACK, 16, STACK
        ARGFRAME IOVERLAY, 0, STATIC
        ARGFRAME DOVERLAY, 0, STATIC
        EXTERN zb_StartRequest
        FUNCTION zb_StartRequest,0202H
        ARGFRAME ISTACK, 0, STACK
        ARGFRAME PSTACK, 0, STACK
        ARGFRAME XSTACK, 12, STACK
        ARGFRAME IOVERLAY, 0, STATIC
        ARGFRAME DOVERLAY, 0, STATIC
        EXTERN zb_SystemReset
        FUNCTION zb_SystemReset,0202H
        ARGFRAME ISTACK, 0, STACK
        ARGFRAME PSTACK, 0, STACK
        ARGFRAME XSTACK, 13, STACK
        ARGFRAME IOVERLAY, 0, STATIC
        ARGFRAME DOVERLAY, 0, STATIC

// C:\Users\DLeijen\Documents\WSN-Lab\Z-Stack Mesh 1.0.0\Projects\zstack\Samples\DemoApp\Source\DemoRouter.c
//    1 /**************************************************************************************************
//    2   Filename:       DemoRouter.c
//    3 
//    4   Description:    Router application for the sensor demo utilizing the Simple API.
//    5 
//    6                   The sensor application binds to a gateway and will periodically
//    7                   read temperature and supply voltage from the ADC and send report
//    8                   towards the gateway node.
//    9 
//   10 
//   11   Copyright 2009 Texas Instruments Incorporated. All rights reserved.
//   12 
//   13   IMPORTANT: Your use of this Software is limited to those specific rights
//   14   granted under the terms of a software license agreement between the user
//   15   who downloaded the software, his/her employer (which must be your employer)
//   16   and Texas Instruments Incorporated (the "License").  You may not use this
//   17   Software unless you agree to abide by the terms of the License. The License
//   18   limits your use, and you acknowledge, that the Software may not be modified,
//   19   copied or distributed unless embedded on a Texas Instruments microcontroller
//   20   or used solely and exclusively in conjunction with a Texas Instruments radio
//   21   frequency transceiver, which is integrated into your product.  Other than for
//   22   the foregoing purpose, you may not use, reproduce, copy, prepare derivative
//   23   works of, modify, distribute, perform, display or sell this Software and/or
//   24   its documentation for any purpose.
//   25 
//   26   YOU FURTHER ACKNOWLEDGE AND AGREE THAT THE SOFTWARE AND DOCUMENTATION ARE
//   27   PROVIDED “AS IS” WITHOUT WARRANTY OF ANY KIND, EITHER EXPRESS OR IMPLIED,
//   28   INCLUDING WITHOUT LIMITATION, ANY WARRANTY OF MERCHANTABILITY, TITLE,
//   29   NON-INFRINGEMENT AND FITNESS FOR A PARTICULAR PURPOSE. IN NO EVENT SHALL
//   30   TEXAS INSTRUMENTS OR ITS LICENSORS BE LIABLE OR OBLIGATED UNDER CONTRACT,
//   31   NEGLIGENCE, STRICT LIABILITY, CONTRIBUTION, BREACH OF WARRANTY, OR OTHER
//   32   LEGAL EQUITABLE THEORY ANY DIRECT OR INDIRECT DAMAGES OR EXPENSES
//   33   INCLUDING BUT NOT LIMITED TO ANY INCIDENTAL, SPECIAL, INDIRECT, PUNITIVE
//   34   OR CONSEQUENTIAL DAMAGES, LOST PROFITS OR LOST DATA, COST OF PROCUREMENT
//   35   OF SUBSTITUTE GOODS, TECHNOLOGY, SERVICES, OR ANY CLAIMS BY THIRD PARTIES
//   36   (INCLUDING BUT NOT LIMITED TO ANY DEFENSE THEREOF), OR OTHER SIMILAR COSTS.
//   37 
//   38   Should you have any questions regarding your right to use this Software,
//   39   contact Texas Instruments Incorporated at www.TI.com.
//   40 **************************************************************************************************/
//   41 
//   42 /******************************************************************************
//   43  * INCLUDES
//   44  */
//   45 
//   46 #include "ZComDef.h"
//   47 #include "OSAL.h"
//   48 #include "sapi.h"
//   49 #include "hal_key.h"

        ASEGN SFR_AN:DATA:NOROOT,090H
// union <unnamed> volatile __sfr _A_P1
_A_P1:
        DATA8
        DS 1

        ASEGN SFR_AN:DATA:NOROOT,0feH
// unsigned char volatile __sfr P1DIR
P1DIR:
        DATA8
        DS 1
//   50 #include "hal_lcd.h"
//   51 #include "hal_led.h"
//   52 #include "hal_adc.h"
//   53 #include "hal_mcu.h"
//   54 #include "hal_uart.h"
//   55 #include "OSAL_NV.h"
//   56 #include "DemoApp.h"
//   57 #include "APS.h"
//   58 
//   59 /******************************************************************************
//   60  * CONSTANTS
//   61  */
//   62 #define REPORT_FAILURE_LIMIT                3
//   63 #define ACK_REQ_INTERVAL                    5 // each 5th packet is sent with ACK request
//   64 
//   65 // Application States
//   66 #define APP_INIT                            0    // Initial state
//   67 #define APP_START                           1    // Sensor has joined network
//   68 #define APP_BIND                            2    // Sensor is in process of binding
//   69 #define APP_REPORT                          4    // Sensor is in reporting state
//   70 
//   71 //LED constants
//   72 #define LED_PORT                            1
//   73 #define LED_PIN                             2
//   74 
//   75 // Application osal event identifiers
//   76 // Bit mask of events ( from 0x0000 to 0x00FF )
//   77 #define MY_START_EVT                        0x0001
//   78 #define MY_REPORT_EVT                       0x0002
//   79 #define MY_FIND_COLLECTOR_EVT               0x0004
//   80 
//   81 // ADC definitions for CC2430/CC2530 from the hal_adc.c file
//   82 #if defined (HAL_MCU_CC2530)
//   83 #define HAL_ADC_REF_125V    0x00    /* Internal 1.25V Reference */
//   84 #define HAL_ADC_DEC_064     0x00    /* Decimate by 64 : 8-bit resolution */
//   85 #define HAL_ADC_DEC_128     0x10    /* Decimate by 128 : 10-bit resolution */
//   86 #define HAL_ADC_DEC_512     0x30    /* Decimate by 512 : 14-bit resolution */
//   87 #define HAL_ADC_CHN_VDD3    0x0f    /* Input channel: VDD/3 */
//   88 #define HAL_ADC_CHN_TEMP    0x0e    /* Temperature sensor */
//   89 #endif // HAL_MCU_CC2530
//   90 
//   91 /******************************************************************************
//   92  * TYPEDEFS
//   93  */
//   94 
//   95 /******************************************************************************
//   96  * LOCAL VARIABLES
//   97  */

        RSEG XDATA_Z:XDATA:NOROOT(0)
        DATA8
//   98 static uint8  appState =          APP_INIT;
appState:
        DS 1
        REQUIRE __INIT_XDATA_Z

        RSEG XDATA_Z:XDATA:NOROOT(0)
        DATA8
//   99 static uint8  reportState =       FALSE;
reportState:
        DS 1
        REQUIRE __INIT_XDATA_Z
//  100 

        RSEG XDATA_Z:XDATA:NOROOT(0)
        DATA8
//  101 static uint8 reportFailureNr =    0;
reportFailureNr:
        DS 1
        REQUIRE __INIT_XDATA_Z

        RSEG XDATA_Z:XDATA:NOROOT(0)
        DATA8
//  102 static uint8 bindRetries =        0;
bindRetries:
        DS 1
        REQUIRE __INIT_XDATA_Z
//  103 

        RSEG XDATA_I:XDATA:NOROOT(0)
//  104 static uint16 myReportPeriod =    5000;         // milliseconds
myReportPeriod:
        DATA16
        DS 2
        REQUIRE `?<Initializer for myReportPeriod>`
        REQUIRE __INIT_XDATA_I

        RSEG XDATA_I:XDATA:NOROOT(0)
//  105 static uint16 myBindRetryDelay =  2000;         // milliseconds
myBindRetryDelay:
        DATA16
        DS 2
        REQUIRE `?<Initializer for myBindRetryDelay>`
        REQUIRE __INIT_XDATA_I

        RSEG XDATA_I:XDATA:NOROOT(0)
//  106 static uint8 myStartRetryDelay =  10;           // milliseconds
myStartRetryDelay:
        DATA8
        DS 1
        REQUIRE `?<Initializer for myStartRetryDelay>`
        REQUIRE __INIT_XDATA_I
//  107 

        RSEG XDATA_Z:XDATA:NOROOT(0)
        DATA16
//  108 static uint16 parentShortAddr;
parentShortAddr:
        DS 2
        REQUIRE __INIT_XDATA_Z
//  109 
//  110 /******************************************************************************
//  111  * GLOBAL VARIABLES
//  112  */
//  113 
//  114 // Inputs and Outputs for Sensor device
//  115 #define NUM_OUT_CMD        1
//  116 #define NUM_IN_CMD         2
//  117 
//  118 // List of output and input commands for Sensor device

        RSEG XDATA_ROM_C:CONST:REORDER:NOROOT(0)
        DATA16
//  119 const cId_t zb_OutCmdList[NUM_OUT_CMD] =
zb_OutCmdList:
        DW 3
//  120 {
//  121   ROUTER_REPORT_CMD_ID
//  122 };
//  123 

        RSEG XDATA_ROM_C:CONST:REORDER:NOROOT(0)
        DATA32
//  124 const cId_t zb_InCmdList[NUM_IN_CMD] =
zb_InCmdList:
        DATA16
        DW 2
        DW 4
//  125 {
//  126   BUTTON_REPORT_CMD_ID,
//  127    COORD_REPORT_CMD_ID,
//  128 };
//  129 
//  130 // Define SimpleDescriptor for Sensor device

        RSEG XDATA_ROM_C:CONST:REORDER:NOROOT(0)
        DATA8
//  131 const SimpleDescriptionFormat_t zb_SimpleDesc =
zb_SimpleDesc:
        DB 2
        DATA16
        DW 3872
        DW 3
        DATA8
        DB 1
        DB 2
        DATA16
        DW zb_InCmdList
        DATA8
        DB 1
        DATA16
        DW zb_OutCmdList
//  132 {
//  133   MY_ENDPOINT_ID,             //  Endpoint
//  134   MY_PROFILE_ID,              //  Profile ID
//  135   DEV_ID_ROUTER,              //  Device ID
//  136   DEVICE_VERSION_SENSOR,      //  Device Version
//  137   0,                          //  Reserved
//  138   NUM_IN_CMD,                 //  Number of Input Commands
//  139   (cId_t *) zb_InCmdList,     //  Input Command List
//  140   NUM_OUT_CMD,                //  Number of Output Commands
//  141   (cId_t *) zb_OutCmdList     //  Output Command List
//  142 };
//  143 
//  144 
//  145 
//  146 /******************************************************************************
//  147  * LOCAL FUNCTIONS
//  148  */
//  149 
//  150 void sendCommand ( uint8 command);
//  151 void uartRxCB( uint8 port, uint8 event );
//  152 
//  153 /*****************************************************************************
//  154  * @fn          zb_HandleOsalEvent
//  155  *
//  156  * @brief       The zb_HandleOsalEvent function is called by the operating
//  157  *              system when a task event is set
//  158  *
//  159  * @param       event - Bitmask containing the events that have been set
//  160  *
//  161  * @return      none
//  162  */

        RSEG BANKED_CODE:CODE:NOROOT(0)
//  163 void zb_HandleOsalEvent( uint16 event )
zb_HandleOsalEvent:
          CFI Block cfiBlock0 Using cfiCommon0
          CFI Function zb_HandleOsalEvent
        CODE
//  164 {
        FUNCALL zb_HandleOsalEvent, HalLedBlink
        LOCFRAME ISTACK, 0, STACK
        LOCFRAME PSTACK, 0, STACK
        LOCFRAME XSTACK, 12, STACK
        LOCFRAME IOVERLAY, 0, STATIC
        LOCFRAME DOVERLAY, 0, STATIC
        ARGFRAME ISTACK, 0, STACK
        ARGFRAME PSTACK, 0, STACK
        ARGFRAME XSTACK, 12, STACK
        ARGFRAME IOVERLAY, 0, STATIC
        ARGFRAME DOVERLAY, 0, STATIC
        FUNCALL zb_HandleOsalEvent, zb_StartRequest
        LOCFRAME ISTACK, 0, STACK
        LOCFRAME PSTACK, 0, STACK
        LOCFRAME XSTACK, 12, STACK
        LOCFRAME IOVERLAY, 0, STATIC
        LOCFRAME DOVERLAY, 0, STATIC
        ARGFRAME ISTACK, 0, STACK
        ARGFRAME PSTACK, 0, STACK
        ARGFRAME XSTACK, 12, STACK
        ARGFRAME IOVERLAY, 0, STATIC
        ARGFRAME DOVERLAY, 0, STATIC
        FUNCALL zb_HandleOsalEvent, zb_StartRequest
        LOCFRAME ISTACK, 0, STACK
        LOCFRAME PSTACK, 0, STACK
        LOCFRAME XSTACK, 12, STACK
        LOCFRAME IOVERLAY, 0, STATIC
        LOCFRAME DOVERLAY, 0, STATIC
        ARGFRAME ISTACK, 0, STACK
        ARGFRAME PSTACK, 0, STACK
        ARGFRAME XSTACK, 12, STACK
        ARGFRAME IOVERLAY, 0, STATIC
        ARGFRAME DOVERLAY, 0, STATIC
        FUNCALL zb_HandleOsalEvent, osal_start_timerEx
        LOCFRAME ISTACK, 0, STACK
        LOCFRAME PSTACK, 0, STACK
        LOCFRAME XSTACK, 16, STACK
        LOCFRAME IOVERLAY, 0, STATIC
        LOCFRAME DOVERLAY, 0, STATIC
        ARGFRAME ISTACK, 0, STACK
        ARGFRAME PSTACK, 0, STACK
        ARGFRAME XSTACK, 16, STACK
        ARGFRAME IOVERLAY, 0, STATIC
        ARGFRAME DOVERLAY, 0, STATIC
        FUNCALL zb_HandleOsalEvent, HalLedBlink
        LOCFRAME ISTACK, 0, STACK
        LOCFRAME PSTACK, 0, STACK
        LOCFRAME XSTACK, 12, STACK
        LOCFRAME IOVERLAY, 0, STATIC
        LOCFRAME DOVERLAY, 0, STATIC
        ARGFRAME ISTACK, 0, STACK
        ARGFRAME PSTACK, 0, STACK
        ARGFRAME XSTACK, 12, STACK
        ARGFRAME IOVERLAY, 0, STATIC
        ARGFRAME DOVERLAY, 0, STATIC
        FUNCALL zb_HandleOsalEvent, zb_BindDevice
        LOCFRAME ISTACK, 0, STACK
        LOCFRAME PSTACK, 0, STACK
        LOCFRAME XSTACK, 12, STACK
        LOCFRAME IOVERLAY, 0, STATIC
        LOCFRAME DOVERLAY, 0, STATIC
        ARGFRAME ISTACK, 0, STACK
        ARGFRAME PSTACK, 0, STACK
        ARGFRAME XSTACK, 12, STACK
        ARGFRAME IOVERLAY, 0, STATIC
        ARGFRAME DOVERLAY, 0, STATIC
        REQUIRE ?V0
        REQUIRE ?V1
        REQUIRE ?V2
        REQUIRE ?V3
        MOV     A,#-0xc
        LCALL   ?BANKED_ENTER_XDATA
          CFI DPH0 load(1, XDATA, add(CFA_XSP16, literal(-1)))
          CFI DPL0 load(1, XDATA, add(CFA_XSP16, literal(-2)))
          CFI ?BRET_EXT load(1, XDATA, add(CFA_XSP16, literal(-3)))
          CFI ?RET_HIGH load(1, XDATA, add(CFA_XSP16, literal(-4)))
          CFI ?RET_LOW load(1, XDATA, add(CFA_XSP16, literal(-5)))
          CFI R7 load(1, XDATA, add(CFA_XSP16, literal(-6)))
          CFI V3 load(1, XDATA, add(CFA_XSP16, literal(-7)))
          CFI V2 load(1, XDATA, add(CFA_XSP16, literal(-8)))
          CFI V1 load(1, XDATA, add(CFA_XSP16, literal(-9)))
          CFI V0 load(1, XDATA, add(CFA_XSP16, literal(-10)))
          CFI VB load(1, XDATA, add(CFA_XSP16, literal(-11)))
          CFI R6 load(1, XDATA, add(CFA_XSP16, literal(-12)))
          CFI CFA_SP SP+0
          CFI CFA_XSP16 add(XSP16, 12)
        ; Saved register size: 12
        ; Auto size: 0
        MOV     A,R2
        MOV     R6,A
        MOV     A,R3
        MOV     R7,A
//  165   if( event & SYS_EVENT_MSG )
//  166   {
//  167   }
//  168 
//  169   if( event & ZB_ENTRY_EVENT )
        MOV     A,R6
        ANL     A,#0x0
        MOV     R0,A
        MOV     A,R7
        ANL     A,#0x10
        MOV     R1,A
        MOV     A,R0
        ORL     A,R1
        JZ      ??zb_HandleOsalEvent_0
//  170   {
//  171     // blind LED 1 to indicate joining a network
//  172     HalLedBlink ( HAL_LED_1, 0, 50, 500 );
        ; Setup parameters for call to function HalLedBlink
        MOV     R4,#-0xc
        MOV     R5,#0x1
        MOV     R3,#0x32
        MOV     R2,#0x0
        MOV     R1,#0x1
        LCALL   `??HalLedBlink::?relay`; Banked call to: HalLedBlink
//  173 
//  174     // Start the device
//  175     zb_StartRequest();
        ; Setup parameters for call to function zb_StartRequest
        LCALL   `??zb_StartRequest::?relay`; Banked call to: zb_StartRequest
//  176     
//  177     MCU_IO_DIR_OUTPUT(LED_PORT, LED_PIN);
        ORL     0xfe,#0x4
//  178   }
//  179 
//  180   if ( event & MY_START_EVT )
??zb_HandleOsalEvent_0:
        MOV     A,R6
        MOV     C,0xE0 /* A   */.0
        JNC     ??zb_HandleOsalEvent_1
//  181   {
//  182     zb_StartRequest();
        ; Setup parameters for call to function zb_StartRequest
        LCALL   `??zb_StartRequest::?relay`; Banked call to: zb_StartRequest
//  183   }
//  184 
//  185   if ( event & MY_REPORT_EVT )
??zb_HandleOsalEvent_1:
        MOV     A,R6
        ANL     A,#0x2
        JZ      ??zb_HandleOsalEvent_2
//  186   {
//  187     if ( appState == APP_REPORT )
        MOV     DPTR,#appState
        MOVX    A,@DPTR
        XRL     A,#0x4
        JNZ     ??zb_HandleOsalEvent_2
//  188     {
//  189       osal_start_timerEx( sapi_TaskID, MY_REPORT_EVT, myReportPeriod );
        ; Setup parameters for call to function osal_start_timerEx
        MOV     DPTR,#myReportPeriod
        MOVX    A,@DPTR
        MOV     ?V0,A
        INC     DPTR
        MOVX    A,@DPTR
        MOV     ?V1,A
        CLR     A
        MOV     ?V2,A
        MOV     ?V3,A
        MOV     R0,#?V0
        LCALL   ?PUSH_XSTACK_I_FOUR
          CFI CFA_XSP16 add(XSP16, 16)
        MOV     R2,#0x2
        MOV     R3,#0x0
        MOV     DPTR,#sapi_TaskID
        MOVX    A,@DPTR
        MOV     R1,A
        LCALL   `??osal_start_timerEx::?relay`; Banked call to: osal_start_timerEx
        MOV     A,#0x4
        LCALL   ?DEALLOC_XSTACK8
          CFI CFA_XSP16 add(XSP16, 12)
        MOV     A,R1
//  190     }
//  191   }
//  192 
//  193   if ( event & MY_FIND_COLLECTOR_EVT )
??zb_HandleOsalEvent_2:
        MOV     A,R6
        ANL     A,#0x4
        JZ      ??zb_HandleOsalEvent_3
//  194   {
//  195     // blind LED 2 to indicate discovery and binding
//  196     HalLedBlink ( HAL_LED_2, 0, 50, 500 );
        ; Setup parameters for call to function HalLedBlink
        MOV     R4,#-0xc
        MOV     R5,#0x1
        MOV     R3,#0x32
        MOV     R2,#0x0
        MOV     R1,#0x2
        LCALL   `??HalLedBlink::?relay`; Banked call to: HalLedBlink
//  197 
//  198     appState = APP_BIND;
        MOV     DPTR,#appState
        MOV     A,#0x2
        MOVX    @DPTR,A
//  199     // Find and bind to a collector device
//  200     zb_BindDevice( TRUE, ROUTER_REPORT_CMD_ID, (uint8 *)NULL );
        ; Setup parameters for call to function zb_BindDevice
        MOV     R4,#0x0
        MOV     R5,#0x0
        MOV     R2,#0x3
        MOV     R3,#0x0
        MOV     R1,#0x1
        LCALL   `??zb_BindDevice::?relay`; Banked call to: zb_BindDevice
//  201   }
//  202 }
??zb_HandleOsalEvent_3:
        MOV     R7,#0x4
        LJMP    ?BANKED_LEAVE_XDATA
          CFI R6 SameValue
          CFI VB SameValue
          CFI V0 SameValue
          CFI V1 SameValue
          CFI V2 SameValue
          CFI V3 SameValue
          CFI R7 SameValue
          CFI ?RET_LOW Frame(CFA_SP, 1)
          CFI ?RET_HIGH Frame(CFA_SP, 2)
          CFI ?BRET_EXT Frame(CFA_SP, 3)
          CFI DPL0 SameValue
          CFI DPH0 SameValue
          CFI CFA_SP SP+-3
          CFI CFA_XSP16 XSP16+0
          CFI EndBlock cfiBlock0
        REQUIRE P1DIR
//  203 
//  204 /******************************************************************************
//  205  * @fn      zb_HandleKeys
//  206  *
//  207  * @brief   Handles all key events for this device.
//  208  *
//  209  * @param   shift - true if in shift/alt.
//  210  * @param   keys - bit field for key events. Valid entries:
//  211  *                 EVAL_SW4
//  212  *                 EVAL_SW3
//  213  *                 EVAL_SW2
//  214  *                 EVAL_SW1
//  215  *
//  216  * @return  none
//  217  */

        RSEG BANKED_CODE:CODE:NOROOT(0)
//  218 void zb_HandleKeys( uint8 shift, uint8 keys )
zb_HandleKeys:
          CFI Block cfiBlock1 Using cfiCommon0
          CFI Function zb_HandleKeys
        CODE
//  219 {
        FUNCALL zb_HandleKeys, sendCommand
        LOCFRAME ISTACK, 0, STACK
        LOCFRAME PSTACK, 0, STACK
        LOCFRAME XSTACK, 9, STACK
        LOCFRAME IOVERLAY, 0, STATIC
        LOCFRAME DOVERLAY, 0, STATIC
        ARGFRAME ISTACK, 0, STACK
        ARGFRAME PSTACK, 0, STACK
        ARGFRAME XSTACK, 9, STACK
        ARGFRAME IOVERLAY, 0, STATIC
        ARGFRAME DOVERLAY, 0, STATIC
        MOV     A,#-0x9
        LCALL   ?BANKED_ENTER_XDATA
          CFI DPH0 load(1, XDATA, add(CFA_XSP16, literal(-1)))
          CFI DPL0 load(1, XDATA, add(CFA_XSP16, literal(-2)))
          CFI ?BRET_EXT load(1, XDATA, add(CFA_XSP16, literal(-3)))
          CFI ?RET_HIGH load(1, XDATA, add(CFA_XSP16, literal(-4)))
          CFI ?RET_LOW load(1, XDATA, add(CFA_XSP16, literal(-5)))
          CFI R7 load(1, XDATA, add(CFA_XSP16, literal(-6)))
          CFI V0 load(1, XDATA, add(CFA_XSP16, literal(-7)))
          CFI VB load(1, XDATA, add(CFA_XSP16, literal(-8)))
          CFI R6 load(1, XDATA, add(CFA_XSP16, literal(-9)))
          CFI CFA_SP SP+0
          CFI CFA_XSP16 add(XSP16, 9)
        ; Saved register size: 9
        ; Auto size: 0
        MOV     A,R1
        MOV     R6,A
        MOV     A,R2
        MOV     R7,A
//  220   // Shift is used to make each button/switch dual purpose.
//  221   if ( shift )
        MOV     A,R6
        JNZ     ??zb_HandleKeys_0
//  222   {
//  223     if ( keys & HAL_KEY_SW_1 )
//  224     {
//  225     }
//  226     if ( keys & HAL_KEY_SW_2 )
//  227     {
//  228     }
//  229     if ( keys & HAL_KEY_SW_3 )
//  230     {
//  231     }
//  232     if ( keys & HAL_KEY_SW_4 )
//  233     {
//  234     }
//  235   }
//  236   else
//  237   {
//  238     if ( keys & HAL_KEY_SW_1 )
//  239     {
//  240     }
//  241     if ( keys & HAL_KEY_SW_2 )
        MOV     A,R7
        MOV     C,0xE0 /* A   */.1
        JNC     ??zb_HandleKeys_0
//  242     {
//  243       sendCommand(DOOR_BUTTON_PRESSED);
        ; Setup parameters for call to function sendCommand
        MOV     R1,#-0x10
        LCALL   `??sendCommand::?relay`; Banked call to: sendCommand
//  244     }
//  245     if ( keys & HAL_KEY_SW_3 )
//  246     {
//  247     }
//  248     if ( keys & HAL_KEY_SW_4 )
//  249     {
//  250     }
//  251   }
//  252 }
??zb_HandleKeys_0:
        MOV     R7,#0x1
        LJMP    ?BANKED_LEAVE_XDATA
          CFI R6 SameValue
          CFI VB SameValue
          CFI V0 SameValue
          CFI R7 SameValue
          CFI ?RET_LOW Frame(CFA_SP, 1)
          CFI ?RET_HIGH Frame(CFA_SP, 2)
          CFI ?BRET_EXT Frame(CFA_SP, 3)
          CFI DPL0 SameValue
          CFI DPH0 SameValue
          CFI CFA_SP SP+-3
          CFI CFA_XSP16 XSP16+0
          CFI EndBlock cfiBlock1
//  253 
//  254 /******************************************************************************
//  255  * @fn          zb_StartConfirm
//  256  *
//  257  * @brief       The zb_StartConfirm callback is called by the ZigBee stack
//  258  *              after a start request operation completes
//  259  *
//  260  * @param       status - The status of the start operation.  Status of
//  261  *                       ZB_SUCCESS indicates the start operation completed
//  262  *                       successfully.  Else the status is an error code.
//  263  *
//  264  * @return      none
//  265  */

        RSEG BANKED_CODE:CODE:NOROOT(0)
//  266 void zb_StartConfirm( uint8 status )
zb_StartConfirm:
          CFI Block cfiBlock2 Using cfiCommon0
          CFI Function zb_StartConfirm
        CODE
//  267 {
        FUNCALL zb_StartConfirm, HalLedSet
        LOCFRAME ISTACK, 0, STACK
        LOCFRAME PSTACK, 0, STACK
        LOCFRAME XSTACK, 12, STACK
        LOCFRAME IOVERLAY, 0, STATIC
        LOCFRAME DOVERLAY, 0, STATIC
        ARGFRAME ISTACK, 0, STACK
        ARGFRAME PSTACK, 0, STACK
        ARGFRAME XSTACK, 12, STACK
        ARGFRAME IOVERLAY, 0, STATIC
        ARGFRAME DOVERLAY, 0, STATIC
        FUNCALL zb_StartConfirm, osal_set_event
        LOCFRAME ISTACK, 0, STACK
        LOCFRAME PSTACK, 0, STACK
        LOCFRAME XSTACK, 12, STACK
        LOCFRAME IOVERLAY, 0, STATIC
        LOCFRAME DOVERLAY, 0, STATIC
        ARGFRAME ISTACK, 0, STACK
        ARGFRAME PSTACK, 0, STACK
        ARGFRAME XSTACK, 12, STACK
        ARGFRAME IOVERLAY, 0, STATIC
        ARGFRAME DOVERLAY, 0, STATIC
        FUNCALL zb_StartConfirm, zb_GetDeviceInfo
        LOCFRAME ISTACK, 0, STACK
        LOCFRAME PSTACK, 0, STACK
        LOCFRAME XSTACK, 12, STACK
        LOCFRAME IOVERLAY, 0, STATIC
        LOCFRAME DOVERLAY, 0, STATIC
        ARGFRAME ISTACK, 0, STACK
        ARGFRAME PSTACK, 0, STACK
        ARGFRAME XSTACK, 12, STACK
        ARGFRAME IOVERLAY, 0, STATIC
        ARGFRAME DOVERLAY, 0, STATIC
        FUNCALL zb_StartConfirm, zb_AllowBind
        LOCFRAME ISTACK, 0, STACK
        LOCFRAME PSTACK, 0, STACK
        LOCFRAME XSTACK, 12, STACK
        LOCFRAME IOVERLAY, 0, STATIC
        LOCFRAME DOVERLAY, 0, STATIC
        ARGFRAME ISTACK, 0, STACK
        ARGFRAME PSTACK, 0, STACK
        ARGFRAME XSTACK, 12, STACK
        ARGFRAME IOVERLAY, 0, STATIC
        ARGFRAME DOVERLAY, 0, STATIC
        FUNCALL zb_StartConfirm, HalLedSet
        LOCFRAME ISTACK, 0, STACK
        LOCFRAME PSTACK, 0, STACK
        LOCFRAME XSTACK, 12, STACK
        LOCFRAME IOVERLAY, 0, STATIC
        LOCFRAME DOVERLAY, 0, STATIC
        ARGFRAME ISTACK, 0, STACK
        ARGFRAME PSTACK, 0, STACK
        ARGFRAME XSTACK, 12, STACK
        ARGFRAME IOVERLAY, 0, STATIC
        ARGFRAME DOVERLAY, 0, STATIC
        FUNCALL zb_StartConfirm, osal_start_timerEx
        LOCFRAME ISTACK, 0, STACK
        LOCFRAME PSTACK, 0, STACK
        LOCFRAME XSTACK, 16, STACK
        LOCFRAME IOVERLAY, 0, STATIC
        LOCFRAME DOVERLAY, 0, STATIC
        ARGFRAME ISTACK, 0, STACK
        ARGFRAME PSTACK, 0, STACK
        ARGFRAME XSTACK, 16, STACK
        ARGFRAME IOVERLAY, 0, STATIC
        ARGFRAME DOVERLAY, 0, STATIC
        REQUIRE ?V0
        REQUIRE ?V1
        REQUIRE ?V2
        REQUIRE ?V3
        MOV     A,#-0xc
        LCALL   ?BANKED_ENTER_XDATA
          CFI DPH0 load(1, XDATA, add(CFA_XSP16, literal(-1)))
          CFI DPL0 load(1, XDATA, add(CFA_XSP16, literal(-2)))
          CFI ?BRET_EXT load(1, XDATA, add(CFA_XSP16, literal(-3)))
          CFI ?RET_HIGH load(1, XDATA, add(CFA_XSP16, literal(-4)))
          CFI ?RET_LOW load(1, XDATA, add(CFA_XSP16, literal(-5)))
          CFI R7 load(1, XDATA, add(CFA_XSP16, literal(-6)))
          CFI V3 load(1, XDATA, add(CFA_XSP16, literal(-7)))
          CFI V2 load(1, XDATA, add(CFA_XSP16, literal(-8)))
          CFI V1 load(1, XDATA, add(CFA_XSP16, literal(-9)))
          CFI V0 load(1, XDATA, add(CFA_XSP16, literal(-10)))
          CFI VB load(1, XDATA, add(CFA_XSP16, literal(-11)))
          CFI R6 load(1, XDATA, add(CFA_XSP16, literal(-12)))
          CFI CFA_SP SP+0
          CFI CFA_XSP16 add(XSP16, 12)
        ; Saved register size: 12
        ; Auto size: 0
        MOV     A,R1
        MOV     R6,A
//  268   // If the device sucessfully started, change state to running
//  269   if ( status == ZB_SUCCESS )
        MOV     A,R6
        JNZ     ??zb_StartConfirm_0
//  270   {
//  271     // Set LED 1 to indicate that node is operational on the network
//  272     HalLedSet( HAL_LED_1, HAL_LED_MODE_ON );
        ; Setup parameters for call to function HalLedSet
        MOV     R2,#0x1
        MOV     R1,#0x1
        LCALL   `??HalLedSet::?relay`; Banked call to: HalLedSet
        MOV     A,R1
//  273 
//  274     // Change application state
//  275     appState = APP_START;
        MOV     DPTR,#appState
        MOV     A,#0x1
        MOVX    @DPTR,A
//  276 
//  277     // Set event to bind to a collector
//  278     osal_set_event( sapi_TaskID, MY_FIND_COLLECTOR_EVT );
        ; Setup parameters for call to function osal_set_event
        MOV     R2,#0x4
        MOV     R3,#0x0
        MOV     DPTR,#sapi_TaskID
        MOVX    A,@DPTR
        MOV     R1,A
        LCALL   `??osal_set_event::?relay`; Banked call to: osal_set_event
        MOV     A,R1
//  279 
//  280     // Store parent short address
//  281     zb_GetDeviceInfo(ZB_INFO_PARENT_SHORT_ADDR, &parentShortAddr);
        ; Setup parameters for call to function zb_GetDeviceInfo
        MOV     R2,#parentShortAddr & 0xff
        MOV     R3,#(parentShortAddr >> 8) & 0xff
        MOV     R1,#0x3
        LCALL   `??zb_GetDeviceInfo::?relay`; Banked call to: zb_GetDeviceInfo
//  282 
//  283     // Turn ON Allow Bind mode infinitly
//  284     zb_AllowBind( 0xFF );
        ; Setup parameters for call to function zb_AllowBind
        MOV     R1,#-0x1
        LCALL   `??zb_AllowBind::?relay`; Banked call to: zb_AllowBind
//  285     HalLedSet( HAL_LED_2, HAL_LED_MODE_ON );
        ; Setup parameters for call to function HalLedSet
        MOV     R2,#0x1
        MOV     R1,#0x2
        LCALL   `??HalLedSet::?relay`; Banked call to: HalLedSet
        MOV     A,R1
        SJMP    ??zb_StartConfirm_1
//  286   }
//  287   else
//  288   {
//  289     // Try again later with a delay
//  290     osal_start_timerEx( sapi_TaskID, MY_START_EVT, myStartRetryDelay );
??zb_StartConfirm_0:
        ; Setup parameters for call to function osal_start_timerEx
        MOV     DPTR,#myStartRetryDelay
        MOVX    A,@DPTR
        MOV     ?V0,A
        CLR     A
        MOV     ?V1,A
        MOV     ?V2,A
        MOV     ?V3,A
        MOV     R0,#?V0
        LCALL   ?PUSH_XSTACK_I_FOUR
          CFI CFA_XSP16 add(XSP16, 16)
        MOV     R2,#0x1
        MOV     R3,#0x0
        MOV     DPTR,#sapi_TaskID
        MOVX    A,@DPTR
        MOV     R1,A
        LCALL   `??osal_start_timerEx::?relay`; Banked call to: osal_start_timerEx
        MOV     A,#0x4
        LCALL   ?DEALLOC_XSTACK8
          CFI CFA_XSP16 add(XSP16, 12)
        MOV     A,R1
//  291   }
//  292 }
??zb_StartConfirm_1:
        MOV     R7,#0x4
        LJMP    ?BANKED_LEAVE_XDATA
          CFI R6 SameValue
          CFI VB SameValue
          CFI V0 SameValue
          CFI V1 SameValue
          CFI V2 SameValue
          CFI V3 SameValue
          CFI R7 SameValue
          CFI ?RET_LOW Frame(CFA_SP, 1)
          CFI ?RET_HIGH Frame(CFA_SP, 2)
          CFI ?BRET_EXT Frame(CFA_SP, 3)
          CFI DPL0 SameValue
          CFI DPH0 SameValue
          CFI CFA_SP SP+-3
          CFI CFA_XSP16 XSP16+0
          CFI EndBlock cfiBlock2
//  293 
//  294 /******************************************************************************
//  295  * @fn          zb_SendDataConfirm
//  296  *
//  297  * @brief       The zb_SendDataConfirm callback function is called by the
//  298  *              ZigBee after a send data operation completes
//  299  *
//  300  * @param       handle - The handle identifying the data transmission.
//  301  *              status - The status of the operation.
//  302  *
//  303  * @return      none
//  304  */

        RSEG BANKED_CODE:CODE:NOROOT(0)
//  305 void zb_SendDataConfirm( uint8 handle, uint8 status )
zb_SendDataConfirm:
          CFI Block cfiBlock3 Using cfiCommon0
          CFI Function zb_SendDataConfirm
        CODE
//  306 {
        FUNCALL zb_SendDataConfirm, osal_stop_timerEx
        LOCFRAME ISTACK, 0, STACK
        LOCFRAME PSTACK, 0, STACK
        LOCFRAME XSTACK, 12, STACK
        LOCFRAME IOVERLAY, 0, STATIC
        LOCFRAME DOVERLAY, 0, STATIC
        ARGFRAME ISTACK, 0, STACK
        ARGFRAME PSTACK, 0, STACK
        ARGFRAME XSTACK, 12, STACK
        ARGFRAME IOVERLAY, 0, STATIC
        ARGFRAME DOVERLAY, 0, STATIC
        FUNCALL zb_SendDataConfirm, zb_BindDevice
        LOCFRAME ISTACK, 0, STACK
        LOCFRAME PSTACK, 0, STACK
        LOCFRAME XSTACK, 12, STACK
        LOCFRAME IOVERLAY, 0, STATIC
        LOCFRAME DOVERLAY, 0, STATIC
        ARGFRAME ISTACK, 0, STACK
        ARGFRAME PSTACK, 0, STACK
        ARGFRAME XSTACK, 12, STACK
        ARGFRAME IOVERLAY, 0, STATIC
        ARGFRAME DOVERLAY, 0, STATIC
        FUNCALL zb_SendDataConfirm, osal_start_timerEx
        LOCFRAME ISTACK, 0, STACK
        LOCFRAME PSTACK, 0, STACK
        LOCFRAME XSTACK, 16, STACK
        LOCFRAME IOVERLAY, 0, STATIC
        LOCFRAME DOVERLAY, 0, STATIC
        ARGFRAME ISTACK, 0, STACK
        ARGFRAME PSTACK, 0, STACK
        ARGFRAME XSTACK, 16, STACK
        ARGFRAME IOVERLAY, 0, STATIC
        ARGFRAME DOVERLAY, 0, STATIC
        REQUIRE ?V0
        REQUIRE ?V1
        REQUIRE ?V2
        REQUIRE ?V3
        MOV     A,#-0xc
        LCALL   ?BANKED_ENTER_XDATA
          CFI DPH0 load(1, XDATA, add(CFA_XSP16, literal(-1)))
          CFI DPL0 load(1, XDATA, add(CFA_XSP16, literal(-2)))
          CFI ?BRET_EXT load(1, XDATA, add(CFA_XSP16, literal(-3)))
          CFI ?RET_HIGH load(1, XDATA, add(CFA_XSP16, literal(-4)))
          CFI ?RET_LOW load(1, XDATA, add(CFA_XSP16, literal(-5)))
          CFI R7 load(1, XDATA, add(CFA_XSP16, literal(-6)))
          CFI V3 load(1, XDATA, add(CFA_XSP16, literal(-7)))
          CFI V2 load(1, XDATA, add(CFA_XSP16, literal(-8)))
          CFI V1 load(1, XDATA, add(CFA_XSP16, literal(-9)))
          CFI V0 load(1, XDATA, add(CFA_XSP16, literal(-10)))
          CFI VB load(1, XDATA, add(CFA_XSP16, literal(-11)))
          CFI R6 load(1, XDATA, add(CFA_XSP16, literal(-12)))
          CFI CFA_SP SP+0
          CFI CFA_XSP16 add(XSP16, 12)
        ; Saved register size: 12
        ; Auto size: 0
        MOV     A,R1
        MOV     R6,A
        MOV     A,R2
        MOV     R7,A
//  307   if( status != ZB_SUCCESS )
        MOV     A,R7
        JZ      ??zb_SendDataConfirm_0
//  308   {
//  309     if ( ++reportFailureNr >= REPORT_FAILURE_LIMIT )
        MOV     DPTR,#reportFailureNr
        MOVX    A,@DPTR
        ADD     A,#0x1
        MOVX    @DPTR,A
        MOV     DPTR,#reportFailureNr
        MOVX    A,@DPTR
        CLR     C
        SUBB    A,#0x3
        JC      ??zb_SendDataConfirm_1
//  310     {
//  311        // Stop reporting
//  312        osal_stop_timerEx( sapi_TaskID, MY_REPORT_EVT );
        ; Setup parameters for call to function osal_stop_timerEx
        MOV     R2,#0x2
        MOV     R3,#0x0
        MOV     DPTR,#sapi_TaskID
        MOVX    A,@DPTR
        MOV     R1,A
        LCALL   `??osal_stop_timerEx::?relay`; Banked call to: osal_stop_timerEx
        MOV     A,R1
//  313 
//  314        // After failure start reporting automatically when the device
//  315        // is binded to a new gateway
//  316        reportState = TRUE;
        MOV     DPTR,#reportState
        MOV     A,#0x1
        MOVX    @DPTR,A
//  317 
//  318        // Delete previous binding
//  319        zb_BindDevice( FALSE, ROUTER_REPORT_CMD_ID, (uint8 *)NULL );
        ; Setup parameters for call to function zb_BindDevice
        MOV     R4,#0x0
        MOV     R5,#0x0
        MOV     R2,#0x3
        MOV     R3,#0x0
        MOV     R1,#0x0
        LCALL   `??zb_BindDevice::?relay`; Banked call to: zb_BindDevice
//  320 
//  321       // Try to bind a new gateway
//  322        osal_start_timerEx( sapi_TaskID, MY_FIND_COLLECTOR_EVT, myBindRetryDelay );
        ; Setup parameters for call to function osal_start_timerEx
        MOV     DPTR,#myBindRetryDelay
        MOVX    A,@DPTR
        MOV     ?V0,A
        INC     DPTR
        MOVX    A,@DPTR
        MOV     ?V1,A
        CLR     A
        MOV     ?V2,A
        MOV     ?V3,A
        MOV     R0,#?V0
        LCALL   ?PUSH_XSTACK_I_FOUR
          CFI CFA_XSP16 add(XSP16, 16)
        MOV     R2,#0x4
        MOV     R3,#0x0
        MOV     DPTR,#sapi_TaskID
        MOVX    A,@DPTR
        MOV     R1,A
        LCALL   `??osal_start_timerEx::?relay`; Banked call to: osal_start_timerEx
        MOV     A,#0x4
        LCALL   ?DEALLOC_XSTACK8
          CFI CFA_XSP16 add(XSP16, 12)
        MOV     A,R1
//  323        reportFailureNr = 0;
        MOV     DPTR,#reportFailureNr
        MOV     A,#0x0
        MOVX    @DPTR,A
        SJMP    ??zb_SendDataConfirm_1
//  324     }
//  325   }
//  326   // status == SUCCESS
//  327   else
//  328   {
//  329     // Reset failure counter
//  330     reportFailureNr = 0;
??zb_SendDataConfirm_0:
        MOV     DPTR,#reportFailureNr
        MOV     A,#0x0
        MOVX    @DPTR,A
//  331   }
//  332 }
??zb_SendDataConfirm_1:
        MOV     R7,#0x4
        LJMP    ?BANKED_LEAVE_XDATA
          CFI R6 SameValue
          CFI VB SameValue
          CFI V0 SameValue
          CFI V1 SameValue
          CFI V2 SameValue
          CFI V3 SameValue
          CFI R7 SameValue
          CFI ?RET_LOW Frame(CFA_SP, 1)
          CFI ?RET_HIGH Frame(CFA_SP, 2)
          CFI ?BRET_EXT Frame(CFA_SP, 3)
          CFI DPL0 SameValue
          CFI DPH0 SameValue
          CFI CFA_SP SP+-3
          CFI CFA_XSP16 XSP16+0
          CFI EndBlock cfiBlock3
//  333 
//  334 /******************************************************************************
//  335  * @fn          zb_BindConfirm
//  336  *
//  337  * @brief       The zb_BindConfirm callback is called by the ZigBee stack
//  338  *              after a bind operation completes.
//  339  *
//  340  * @param       commandId - The command ID of the binding being confirmed.
//  341  *              status - The status of the bind operation.
//  342  *
//  343  * @return      none
//  344  */

        RSEG BANKED_CODE:CODE:NOROOT(0)
//  345 void zb_BindConfirm( uint16 commandId, uint8 status )
zb_BindConfirm:
          CFI Block cfiBlock4 Using cfiCommon0
          CFI Function zb_BindConfirm
        CODE
//  346 {
        FUNCALL zb_BindConfirm, HalLedSet
        LOCFRAME ISTACK, 0, STACK
        LOCFRAME PSTACK, 0, STACK
        LOCFRAME XSTACK, 13, STACK
        LOCFRAME IOVERLAY, 0, STATIC
        LOCFRAME DOVERLAY, 0, STATIC
        ARGFRAME ISTACK, 0, STACK
        ARGFRAME PSTACK, 0, STACK
        ARGFRAME XSTACK, 13, STACK
        ARGFRAME IOVERLAY, 0, STATIC
        ARGFRAME DOVERLAY, 0, STATIC
        FUNCALL zb_BindConfirm, osal_set_event
        LOCFRAME ISTACK, 0, STACK
        LOCFRAME PSTACK, 0, STACK
        LOCFRAME XSTACK, 13, STACK
        LOCFRAME IOVERLAY, 0, STATIC
        LOCFRAME DOVERLAY, 0, STATIC
        ARGFRAME ISTACK, 0, STACK
        ARGFRAME PSTACK, 0, STACK
        ARGFRAME XSTACK, 13, STACK
        ARGFRAME IOVERLAY, 0, STATIC
        ARGFRAME DOVERLAY, 0, STATIC
        FUNCALL zb_BindConfirm, zb_SystemReset
        LOCFRAME ISTACK, 0, STACK
        LOCFRAME PSTACK, 0, STACK
        LOCFRAME XSTACK, 13, STACK
        LOCFRAME IOVERLAY, 0, STATIC
        LOCFRAME DOVERLAY, 0, STATIC
        ARGFRAME ISTACK, 0, STACK
        ARGFRAME PSTACK, 0, STACK
        ARGFRAME XSTACK, 13, STACK
        ARGFRAME IOVERLAY, 0, STATIC
        ARGFRAME DOVERLAY, 0, STATIC
        FUNCALL zb_BindConfirm, osal_start_timerEx
        LOCFRAME ISTACK, 0, STACK
        LOCFRAME PSTACK, 0, STACK
        LOCFRAME XSTACK, 17, STACK
        LOCFRAME IOVERLAY, 0, STATIC
        LOCFRAME DOVERLAY, 0, STATIC
        ARGFRAME ISTACK, 0, STACK
        ARGFRAME PSTACK, 0, STACK
        ARGFRAME XSTACK, 17, STACK
        ARGFRAME IOVERLAY, 0, STATIC
        ARGFRAME DOVERLAY, 0, STATIC
        REQUIRE ?V0
        REQUIRE ?V1
        REQUIRE ?V2
        REQUIRE ?V3
        REQUIRE ?V4
        MOV     A,#-0xd
        LCALL   ?BANKED_ENTER_XDATA
          CFI DPH0 load(1, XDATA, add(CFA_XSP16, literal(-1)))
          CFI DPL0 load(1, XDATA, add(CFA_XSP16, literal(-2)))
          CFI ?BRET_EXT load(1, XDATA, add(CFA_XSP16, literal(-3)))
          CFI ?RET_HIGH load(1, XDATA, add(CFA_XSP16, literal(-4)))
          CFI ?RET_LOW load(1, XDATA, add(CFA_XSP16, literal(-5)))
          CFI R7 load(1, XDATA, add(CFA_XSP16, literal(-6)))
          CFI V4 load(1, XDATA, add(CFA_XSP16, literal(-7)))
          CFI V3 load(1, XDATA, add(CFA_XSP16, literal(-8)))
          CFI V2 load(1, XDATA, add(CFA_XSP16, literal(-9)))
          CFI V1 load(1, XDATA, add(CFA_XSP16, literal(-10)))
          CFI V0 load(1, XDATA, add(CFA_XSP16, literal(-11)))
          CFI VB load(1, XDATA, add(CFA_XSP16, literal(-12)))
          CFI R6 load(1, XDATA, add(CFA_XSP16, literal(-13)))
          CFI CFA_SP SP+0
          CFI CFA_XSP16 add(XSP16, 13)
        ; Saved register size: 13
        ; Auto size: 0
        MOV     A,R2
        MOV     R6,A
        MOV     A,R3
        MOV     R7,A
        MOV     ?V4,R1
//  347   if( status == ZB_SUCCESS )
        MOV     A,?V4
        JNZ     ??zb_BindConfirm_0
//  348   {
//  349     appState = APP_REPORT;
        MOV     DPTR,#appState
        MOV     A,#0x4
        MOVX    @DPTR,A
//  350     HalLedSet( HAL_LED_2, HAL_LED_MODE_OFF );
        ; Setup parameters for call to function HalLedSet
        MOV     R2,#0x0
        MOV     R1,#0x2
        LCALL   `??HalLedSet::?relay`; Banked call to: HalLedSet
        MOV     A,R1
//  351 
//  352     // After failure reporting start automatically when the device
//  353     // is binded to a new gateway
//  354     if ( reportState )
        MOV     DPTR,#reportState
        MOVX    A,@DPTR
        JZ      ??zb_BindConfirm_1
//  355     {
//  356       // Start reporting
//  357       osal_set_event( sapi_TaskID, MY_REPORT_EVT );
        ; Setup parameters for call to function osal_set_event
        MOV     R2,#0x2
        MOV     R3,#0x0
        MOV     DPTR,#sapi_TaskID
        MOVX    A,@DPTR
        MOV     R1,A
        LCALL   `??osal_set_event::?relay`; Banked call to: osal_set_event
        MOV     A,R1
        SJMP    ??zb_BindConfirm_1
//  358     }
//  359   }
//  360   else
//  361   {
//  362     if ( ++bindRetries >= 2 ) {
??zb_BindConfirm_0:
        MOV     DPTR,#bindRetries
        MOVX    A,@DPTR
        ADD     A,#0x1
        MOVX    @DPTR,A
        MOV     DPTR,#bindRetries
        MOVX    A,@DPTR
        CLR     C
        SUBB    A,#0x2
        JC      ??zb_BindConfirm_2
//  363       // Reset the system
//  364       zb_SystemReset();
        ; Setup parameters for call to function zb_SystemReset
        LCALL   `??zb_SystemReset::?relay`; Banked call to: zb_SystemReset
        SJMP    ??zb_BindConfirm_1
//  365     }
//  366     else
//  367     {
//  368       osal_start_timerEx( sapi_TaskID, MY_FIND_COLLECTOR_EVT, myBindRetryDelay );
??zb_BindConfirm_2:
        ; Setup parameters for call to function osal_start_timerEx
        MOV     DPTR,#myBindRetryDelay
        MOVX    A,@DPTR
        MOV     ?V0,A
        INC     DPTR
        MOVX    A,@DPTR
        MOV     ?V1,A
        CLR     A
        MOV     ?V2,A
        MOV     ?V3,A
        MOV     R0,#?V0
        LCALL   ?PUSH_XSTACK_I_FOUR
          CFI CFA_XSP16 add(XSP16, 17)
        MOV     R2,#0x4
        MOV     R3,#0x0
        MOV     DPTR,#sapi_TaskID
        MOVX    A,@DPTR
        MOV     R1,A
        LCALL   `??osal_start_timerEx::?relay`; Banked call to: osal_start_timerEx
        MOV     A,#0x4
        LCALL   ?DEALLOC_XSTACK8
          CFI CFA_XSP16 add(XSP16, 13)
        MOV     A,R1
//  369     }
//  370   }
//  371 }
??zb_BindConfirm_1:
        MOV     R7,#0x5
        LJMP    ?BANKED_LEAVE_XDATA
          CFI R6 SameValue
          CFI VB SameValue
          CFI V0 SameValue
          CFI V1 SameValue
          CFI V2 SameValue
          CFI V3 SameValue
          CFI V4 SameValue
          CFI R7 SameValue
          CFI ?RET_LOW Frame(CFA_SP, 1)
          CFI ?RET_HIGH Frame(CFA_SP, 2)
          CFI ?BRET_EXT Frame(CFA_SP, 3)
          CFI DPL0 SameValue
          CFI DPH0 SameValue
          CFI CFA_SP SP+-3
          CFI CFA_XSP16 XSP16+0
          CFI EndBlock cfiBlock4
//  372 
//  373 /******************************************************************************
//  374  * @fn          zb_AllowBindConfirm
//  375  *
//  376  * @brief       Indicates when another device attempted to bind to this device
//  377  *
//  378  * @param
//  379  *
//  380  * @return      none
//  381  */

        RSEG BANKED_CODE:CODE:NOROOT(0)
//  382 void zb_AllowBindConfirm( uint16 source )
zb_AllowBindConfirm:
          CFI Block cfiBlock5 Using cfiCommon0
          CFI Function zb_AllowBindConfirm
        CODE
//  383 {
        ; Saved register size: 0
        ; Auto size: 0
//  384   (void)source;
//  385 }
        LJMP    ?BRET
          CFI EndBlock cfiBlock5
//  386 
//  387 /******************************************************************************
//  388  * @fn          zb_FindDeviceConfirm
//  389  *
//  390  * @brief       The zb_FindDeviceConfirm callback function is called by the
//  391  *              ZigBee stack when a find device operation completes.
//  392  *
//  393  * @param       searchType - The type of search that was performed.
//  394  *              searchKey - Value that the search was executed on.
//  395  *              result - The result of the search.
//  396  *
//  397  * @return      none
//  398  */

        RSEG BANKED_CODE:CODE:NOROOT(0)
//  399 void zb_FindDeviceConfirm( uint8 searchType, uint8 *searchKey, uint8 *result )
zb_FindDeviceConfirm:
          CFI Block cfiBlock6 Using cfiCommon0
          CFI Function zb_FindDeviceConfirm
        CODE
//  400 {
        ; Saved register size: 0
        ; Auto size: 0
//  401   (void)searchType;
//  402   (void)searchKey;
//  403   (void)result;
//  404 }
        LJMP    ?BRET
          CFI EndBlock cfiBlock6
//  405 
//  406 /******************************************************************************
//  407  * @fn          zb_ReceiveDataIndication
//  408  *
//  409  * @brief       The zb_ReceiveDataIndication callback function is called
//  410  *              asynchronously by the ZigBee stack to notify the application
//  411  *              when data is received from a peer device.
//  412  *
//  413  * @param       source - The short address of the peer device that sent the data
//  414  *              command - The commandId associated with the data
//  415  *              len - The number of bytes in the pData parameter
//  416  *              pData - The data sent by the peer device
//  417  *
//  418  * @return      none
//  419  */

        RSEG BANKED_CODE:CODE:NOROOT(0)
//  420 void zb_ReceiveDataIndication( uint16 source, uint16 command, uint16 len, uint8 *pData  )
zb_ReceiveDataIndication:
          CFI Block cfiBlock7 Using cfiCommon0
          CFI Function zb_ReceiveDataIndication
        CODE
//  421 {
        FUNCALL zb_ReceiveDataIndication, sendCommand
        LOCFRAME ISTACK, 0, STACK
        LOCFRAME PSTACK, 0, STACK
        LOCFRAME XSTACK, 14, STACK
        LOCFRAME IOVERLAY, 0, STATIC
        LOCFRAME DOVERLAY, 0, STATIC
        ARGFRAME ISTACK, 0, STACK
        ARGFRAME PSTACK, 0, STACK
        ARGFRAME XSTACK, 14, STACK
        ARGFRAME IOVERLAY, 0, STATIC
        ARGFRAME DOVERLAY, 0, STATIC
        REQUIRE ?V0
        REQUIRE ?V1
        REQUIRE ?V2
        REQUIRE ?V3
        REQUIRE ?V4
        REQUIRE ?V5
        MOV     A,#-0xe
        LCALL   ?BANKED_ENTER_XDATA
          CFI DPH0 load(1, XDATA, add(CFA_XSP16, literal(-1)))
          CFI DPL0 load(1, XDATA, add(CFA_XSP16, literal(-2)))
          CFI ?BRET_EXT load(1, XDATA, add(CFA_XSP16, literal(-3)))
          CFI ?RET_HIGH load(1, XDATA, add(CFA_XSP16, literal(-4)))
          CFI ?RET_LOW load(1, XDATA, add(CFA_XSP16, literal(-5)))
          CFI R7 load(1, XDATA, add(CFA_XSP16, literal(-6)))
          CFI V5 load(1, XDATA, add(CFA_XSP16, literal(-7)))
          CFI V4 load(1, XDATA, add(CFA_XSP16, literal(-8)))
          CFI V3 load(1, XDATA, add(CFA_XSP16, literal(-9)))
          CFI V2 load(1, XDATA, add(CFA_XSP16, literal(-10)))
          CFI V1 load(1, XDATA, add(CFA_XSP16, literal(-11)))
          CFI V0 load(1, XDATA, add(CFA_XSP16, literal(-12)))
          CFI VB load(1, XDATA, add(CFA_XSP16, literal(-13)))
          CFI R6 load(1, XDATA, add(CFA_XSP16, literal(-14)))
          CFI CFA_SP SP+0
          CFI CFA_XSP16 add(XSP16, 14)
        ; Saved register size: 14
        ; Auto size: 0
        MOV     ?V0,R2
        MOV     ?V1,R3
        MOV     ?V2,R4
        MOV     ?V3,R5
        MOV     A,#0xe
        LCALL   ?XSTACK_DISP0_8
        MOVX    A,@DPTR
        MOV     ?V4,A
        INC     DPTR
        MOVX    A,@DPTR
        MOV     ?V5,A
        MOV     A,#0x10
        LCALL   ?XSTACK_DISP0_8
        MOVX    A,@DPTR
        MOV     R6,A
        INC     DPTR
        MOVX    A,@DPTR
        MOV     R7,A
//  422   if (pData[len-1] == DOOR_UNLOCKED || pData[len-1] == DOOR_LOCKED) 
        MOV     A,R6
        ADD     A,?V4
        MOV     R0,A
        MOV     A,R7
        ADDC    A,?V5
        MOV     R1,A
        MOV     A,R0
        ADD     A,#-0x1
        MOV     DPL,A
        MOV     A,R1
        ADDC    A,#-0x1
        MOV     DPH,A
        MOVX    A,@DPTR
        XRL     A,#0xf3
        JZ      ??zb_ReceiveDataIndication_0
        MOV     A,R6
        ADD     A,?V4
        MOV     R0,A
        MOV     A,R7
        ADDC    A,?V5
        MOV     R1,A
        MOV     A,R0
        ADD     A,#-0x1
        MOV     DPL,A
        MOV     A,R1
        ADDC    A,#-0x1
        MOV     DPH,A
        MOVX    A,@DPTR
        XRL     A,#0xf2
        JNZ     ??zb_ReceiveDataIndication_1
//  423   {
//  424     if (pData[len-1] == DOOR_LOCKED) 
??zb_ReceiveDataIndication_0:
        MOV     A,R6
        ADD     A,?V4
        MOV     R0,A
        MOV     A,R7
        ADDC    A,?V5
        MOV     R1,A
        MOV     A,R0
        ADD     A,#-0x1
        MOV     DPL,A
        MOV     A,R1
        ADDC    A,#-0x1
        MOV     DPH,A
        MOVX    A,@DPTR
        XRL     A,#0xf2
        JNZ     ??zb_ReceiveDataIndication_2
//  425     {
//  426       MCU_IO_SET_HIGH(LED_PORT, LED_PIN);
        SETB    0x90.2
        SJMP    ??zb_ReceiveDataIndication_1
//  427     }
//  428     else
//  429     {
//  430       MCU_IO_SET_LOW(LED_PORT, LED_PIN);
??zb_ReceiveDataIndication_2:
        CLR     0x90.2
//  431     }
//  432   }
//  433   if (pData[len-1] == LAMP_BUTTON_PRESSED) 
??zb_ReceiveDataIndication_1:
        MOV     A,R6
        ADD     A,?V4
        MOV     R0,A
        MOV     A,R7
        ADDC    A,?V5
        MOV     R1,A
        MOV     A,R0
        ADD     A,#-0x1
        MOV     DPL,A
        MOV     A,R1
        ADDC    A,#-0x1
        MOV     DPH,A
        MOVX    A,@DPTR
        XRL     A,#0xf1
        JNZ     ??zb_ReceiveDataIndication_3
//  434   {
//  435     sendCommand(LAMP_BUTTON_PRESSED);
        ; Setup parameters for call to function sendCommand
        MOV     R1,#-0xf
        LCALL   `??sendCommand::?relay`; Banked call to: sendCommand
//  436   }
//  437 }
??zb_ReceiveDataIndication_3:
        MOV     R7,#0x6
        LJMP    ?BANKED_LEAVE_XDATA
          CFI R6 SameValue
          CFI VB SameValue
          CFI V0 SameValue
          CFI V1 SameValue
          CFI V2 SameValue
          CFI V3 SameValue
          CFI V4 SameValue
          CFI V5 SameValue
          CFI R7 SameValue
          CFI ?RET_LOW Frame(CFA_SP, 1)
          CFI ?RET_HIGH Frame(CFA_SP, 2)
          CFI ?BRET_EXT Frame(CFA_SP, 3)
          CFI DPL0 SameValue
          CFI DPH0 SameValue
          CFI CFA_SP SP+-3
          CFI CFA_XSP16 XSP16+0
          CFI EndBlock cfiBlock7
        REQUIRE _A_P1
//  438 
//  439 
//  440 /******************************************************************************
//  441  * @fn          sendCommand
//  442  *
//  443  * @brief       Sends a command message via Zigbee
//  444  *
//  445  * @param       command - uint8 containing the command bit
//  446  *
//  447  * @return      none
//  448  */

        RSEG BANKED_CODE:CODE:NOROOT(0)
//  449 void sendCommand ( uint8 command )
sendCommand:
          CFI Block cfiBlock8 Using cfiCommon0
          CFI Function sendCommand
        CODE
//  450 {
        FUNCALL sendCommand, zb_SendDataRequest
        LOCFRAME ISTACK, 0, STACK
        LOCFRAME PSTACK, 0, STACK
        LOCFRAME XSTACK, 16, STACK
        LOCFRAME IOVERLAY, 0, STATIC
        LOCFRAME DOVERLAY, 0, STATIC
        ARGFRAME ISTACK, 0, STACK
        ARGFRAME PSTACK, 0, STACK
        ARGFRAME XSTACK, 16, STACK
        ARGFRAME IOVERLAY, 0, STATIC
        ARGFRAME DOVERLAY, 0, STATIC
        REQUIRE ?V0
        REQUIRE ?V1
        MOV     A,#-0xa
        LCALL   ?BANKED_ENTER_XDATA
          CFI DPH0 load(1, XDATA, add(CFA_XSP16, literal(-1)))
          CFI DPL0 load(1, XDATA, add(CFA_XSP16, literal(-2)))
          CFI ?BRET_EXT load(1, XDATA, add(CFA_XSP16, literal(-3)))
          CFI ?RET_HIGH load(1, XDATA, add(CFA_XSP16, literal(-4)))
          CFI ?RET_LOW load(1, XDATA, add(CFA_XSP16, literal(-5)))
          CFI R7 load(1, XDATA, add(CFA_XSP16, literal(-6)))
          CFI V1 load(1, XDATA, add(CFA_XSP16, literal(-7)))
          CFI V0 load(1, XDATA, add(CFA_XSP16, literal(-8)))
          CFI VB load(1, XDATA, add(CFA_XSP16, literal(-9)))
          CFI R6 load(1, XDATA, add(CFA_XSP16, literal(-10)))
          CFI CFA_SP SP+0
          CFI CFA_XSP16 add(XSP16, 10)
        ; Saved register size: 10
        ; Auto size: 1
        MOV     A,#-0x1
        LCALL   ?ALLOC_XSTACK8
          CFI CFA_XSP16 add(XSP16, 11)
        MOV     A,R1
        MOV     R7,A
//  451   uint8 pData[1];
//  452   static uint8 reportNr = 0;
//  453   uint8 txOptions;
//  454 
//  455   pData[0] = command;
        MOV     A,R7
        PUSH    A
          CFI CFA_SP SP+-1
        MOV     DPL,?XSP + 0
        MOV     DPH,?XSP + 1
        POP     A
          CFI CFA_SP SP+0
        MOVX    @DPTR,A
//  456   if ( ++reportNr < ACK_REQ_INTERVAL && reportFailureNr == 0 )
        MOV     DPTR,#??reportNr
        MOVX    A,@DPTR
        ADD     A,#0x1
        MOVX    @DPTR,A
        MOV     DPTR,#??reportNr
        MOVX    A,@DPTR
        CLR     C
        SUBB    A,#0x5
        JNC     ??sendCommand_0
        MOV     DPTR,#reportFailureNr
        MOVX    A,@DPTR
        JNZ     ??sendCommand_0
//  457   {
//  458     txOptions = AF_TX_OPTIONS_NONE;
        MOV     R6,#0x0
        SJMP    ??sendCommand_1
//  459   }
//  460   else
//  461   {
//  462     txOptions = AF_MSG_ACK_REQUEST;
??sendCommand_0:
        MOV     R6,#0x10
//  463     reportNr = 0;
        MOV     DPTR,#??reportNr
        MOV     A,#0x0
        MOVX    @DPTR,A
//  464   }
//  465   zb_SendDataRequest( 0xFFFF, ROUTER_REPORT_CMD_ID, 1, pData, 0, txOptions, 0 );
??sendCommand_1:
        ; Setup parameters for call to function zb_SendDataRequest
        MOV     ?V0,#0x0
        MOV     R0,#?V0
        LCALL   ?PUSH_XSTACK_I_ONE
          CFI CFA_XSP16 add(XSP16, 12)
        MOV     A,R6
        MOV     ?V0,A
        MOV     R0,#?V0
        LCALL   ?PUSH_XSTACK_I_ONE
          CFI CFA_XSP16 add(XSP16, 13)
        MOV     ?V0,#0x0
        MOV     R0,#?V0
        LCALL   ?PUSH_XSTACK_I_ONE
          CFI CFA_XSP16 add(XSP16, 14)
        MOV     A,#0x3
        LCALL   ?XSTACK_DISP100_8
        MOV     ?V0,R0
        MOV     ?V1,R1
        MOV     R0,#?V0
        LCALL   ?PUSH_XSTACK_I_TWO
          CFI CFA_XSP16 add(XSP16, 16)
        MOV     R1,#0x1
        MOV     R4,#0x3
        MOV     R5,#0x0
        MOV     R2,#-0x1
        MOV     R3,#-0x1
        LCALL   `??zb_SendDataRequest::?relay`; Banked call to: zb_SendDataRequest
        MOV     A,#0x5
        LCALL   ?DEALLOC_XSTACK8
          CFI CFA_XSP16 add(XSP16, 11)
//  466 }
        MOV     A,#0x1
        LCALL   ?DEALLOC_XSTACK8
          CFI CFA_XSP16 add(XSP16, 10)
        MOV     R7,#0x2
        LJMP    ?BANKED_LEAVE_XDATA
          CFI R6 SameValue
          CFI VB SameValue
          CFI V0 SameValue
          CFI V1 SameValue
          CFI R7 SameValue
          CFI ?RET_LOW Frame(CFA_SP, 1)
          CFI ?RET_HIGH Frame(CFA_SP, 2)
          CFI ?BRET_EXT Frame(CFA_SP, 3)
          CFI DPL0 SameValue
          CFI DPH0 SameValue
          CFI CFA_SP SP+-3
          CFI CFA_XSP16 XSP16+0
          CFI EndBlock cfiBlock8

        RSEG XDATA_Z:XDATA:NOROOT(0)
        DATA8
??reportNr:
        DS 1
        REQUIRE __INIT_XDATA_Z
//  467 
//  468 /******************************************************************************
//  469  * @fn          uartRxCB
//  470  *
//  471  * @brief       Callback function for UART
//  472  *
//  473  * @param       port - UART port
//  474  *              event - UART event that caused callback
//  475  *
//  476  * @return      none
//  477  */

        RSEG BANKED_CODE:CODE:NOROOT(0)
//  478 void uartRxCB( uint8 port, uint8 event )
uartRxCB:
          CFI Block cfiBlock9 Using cfiCommon0
          CFI Function uartRxCB
        CODE
//  479 {
        ; Saved register size: 0
        ; Auto size: 0
//  480   (void)port;
//  481   (void)event;
//  482 }
        LJMP    ?BRET
          CFI EndBlock cfiBlock9

        RSEG XDATA_ID:CODE:NOROOT(0)
`?<Initializer for myReportPeriod>`:
        DATA16
        DW 5000

        RSEG XDATA_ID:CODE:NOROOT(0)
`?<Initializer for myBindRetryDelay>`:
        DATA16
        DW 2000

        RSEG XDATA_ID:CODE:NOROOT(0)
`?<Initializer for myStartRetryDelay>`:
        DATA8
        DB 10

        RSEG BANK_RELAYS:CODE:REORDER:NOROOT(0)
`??zb_HandleOsalEvent::?relay`:
        CODE
        LCALL   ?BDISPATCH
        DATA24
        DC24    zb_HandleOsalEvent

        RSEG BANK_RELAYS:CODE:REORDER:NOROOT(0)
`??zb_HandleKeys::?relay`:
        CODE
        LCALL   ?BDISPATCH
        DATA24
        DC24    zb_HandleKeys

        RSEG BANK_RELAYS:CODE:REORDER:NOROOT(0)
`??zb_StartConfirm::?relay`:
        CODE
        LCALL   ?BDISPATCH
        DATA24
        DC24    zb_StartConfirm

        RSEG BANK_RELAYS:CODE:REORDER:NOROOT(0)
`??zb_SendDataConfirm::?relay`:
        CODE
        LCALL   ?BDISPATCH
        DATA24
        DC24    zb_SendDataConfirm

        RSEG BANK_RELAYS:CODE:REORDER:NOROOT(0)
`??zb_BindConfirm::?relay`:
        CODE
        LCALL   ?BDISPATCH
        DATA24
        DC24    zb_BindConfirm

        RSEG BANK_RELAYS:CODE:REORDER:NOROOT(0)
`??zb_AllowBindConfirm::?relay`:
        CODE
        LCALL   ?BDISPATCH
        DATA24
        DC24    zb_AllowBindConfirm

        RSEG BANK_RELAYS:CODE:REORDER:NOROOT(0)
`??zb_FindDeviceConfirm::?relay`:
        CODE
        LCALL   ?BDISPATCH
        DATA24
        DC24    zb_FindDeviceConfirm

        RSEG BANK_RELAYS:CODE:REORDER:NOROOT(0)
`??zb_ReceiveDataIndication::?relay`:
        CODE
        LCALL   ?BDISPATCH
        DATA24
        DC24    zb_ReceiveDataIndication

        RSEG BANK_RELAYS:CODE:REORDER:NOROOT(0)
`??sendCommand::?relay`:
        CODE
        LCALL   ?BDISPATCH
        DATA24
        DC24    sendCommand

        RSEG BANK_RELAYS:CODE:REORDER:NOROOT(0)
`??uartRxCB::?relay`:
        CODE
        LCALL   ?BDISPATCH
        DATA24
        DC24    uartRxCB

        END
// 
// 777 bytes in segment BANKED_CODE
//  60 bytes in segment BANK_RELAYS
//   2 bytes in segment SFR_AN
//   5 bytes in segment XDATA_I
//   5 bytes in segment XDATA_ID
//  18 bytes in segment XDATA_ROM_C
//   7 bytes in segment XDATA_Z
// 
// 842 bytes of CODE  memory
//  18 bytes of CONST memory
//   0 bytes of DATA  memory (+ 2 bytes shared)
//  12 bytes of XDATA memory
//
//Errors: none
//Warnings: none
